<?xml version="1.0" encoding="utf-8"?>
<?xml-stylesheet type="text/xsl" href="pdml2html.xsl"?>
<!-- You can find pdml2html.xsl in /Applications/Wireshark.app/Contents/Resources/share/wireshark or at https://gitlab.com/wireshark/wireshark/-/tree/master/resources/share/doc/wireshark/pdml2html.xsl. -->
<pdml version="0" creator="wireshark/4.4.1" time="Wed Oct 23 18:55:25 2024" capture_file="/Users/upse6650/dev/microschc-main/NGAP_capture.pcap">
<packet>
  <proto name="geninfo" pos="0" showname="General information" size="91">
    <field name="num" pos="0" show="1" showname="Number" value="1" size="91"/>
    <field name="len" pos="0" show="91" showname="Frame Length" value="5b" size="91"/>
    <field name="caplen" pos="0" show="91" showname="Captured Length" value="5b" size="91"/>
    <field name="timestamp" pos="0" show="Oct 10, 2024 16:50:44.689641909 CEST" showname="Captured Time" value="1728571844.689641909" size="91"/>
  </proto>
  <proto name="frame" showname="Frame 1: 91 bytes on wire (728 bits), 91 bytes captured (728 bits)" size="91" pos="0">
    <field name="frame.encap_type" showname="Encapsulation type: Ethernet (1)" size="0" pos="0" show="1"/>
    <field name="frame.time" showname="Arrival Time: Oct 10, 2024 16:50:44.689641909 CEST" size="0" pos="0" show="Oct 10, 2024 16:50:44.689641909 CEST"/>
    <field name="frame.time_utc" showname="UTC Arrival Time: Oct 10, 2024 14:50:44.689641909 UTC" size="0" pos="0" show="Oct 10, 2024 14:50:44.689641909 UTC"/>
    <field name="frame.time_epoch" showname="Epoch Arrival Time: 1728571844.689641909" size="0" pos="0" show="1728571844.689641909"/>
    <field name="frame.offset_shift" showname="Time shift for this packet: 0.000000000 seconds" size="0" pos="0" show="0.000000000"/>
    <field name="frame.time_delta" showname="Time delta from previous captured frame: 0.000000000 seconds" size="0" pos="0" show="0.000000000"/>
    <field name="frame.time_delta_displayed" showname="Time delta from previous displayed frame: 0.000000000 seconds" size="0" pos="0" show="0.000000000"/>
    <field name="frame.time_relative" showname="Time since reference or first frame: 0.000000000 seconds" size="0" pos="0" show="0.000000000"/>
    <field name="frame.number" showname="Frame Number: 1" size="0" pos="0" show="1"/>
    <field name="frame.len" showname="Frame Length: 91 bytes (728 bits)" size="0" pos="0" show="91"/>
    <field name="frame.cap_len" showname="Capture Length: 91 bytes (728 bits)" size="0" pos="0" show="91"/>
    <field name="frame.marked" showname="Frame is marked: False" size="0" pos="0" show="False"/>
    <field name="frame.ignored" showname="Frame is ignored: False" size="0" pos="0" show="False"/>
    <field name="frame.protocols" showname="Protocols in frame: eth:ethertype:ip:sctp:ngap:ngap" size="0" pos="0" show="eth:ethertype:ip:sctp:ngap:ngap"/>
  </proto>
  <proto name="eth" showname="Ethernet II, Src: 00:00:00_00:00:00 (00:00:00:00:00:00), Dst: 00:00:00_00:00:00 (00:00:00:00:00:00)" size="14" pos="0">
    <field name="eth.dst" showname="Destination: 00:00:00_00:00:00 (00:00:00:00:00:00)" size="6" pos="0" show="00:00:00:00:00:00" value="000000000000">
      <field name="eth.dst_resolved" showname="Destination (resolved): 00:00:00_00:00:00" hide="yes" size="6" pos="0" show="00:00:00_00:00:00" value="000000000000"/>
      <field name="eth.dst.oui" showname="Destination OUI: 00:00:00 (Officially Xerox, but 0:0:0:0:0:0 is more common)" hide="yes" size="3" pos="0" show="0" value="000000"/>
      <field name="eth.dst.oui_resolved" showname="Destination OUI (resolved): Officially Xerox, but 0:0:0:0:0:0 is more common" hide="yes" size="6" pos="0" show="Officially Xerox, but 0:0:0:0:0:0 is more common" value="000000000000"/>
      <field name="eth.dst.lg" showname=".... ..0. .... .... .... .... = LG bit: Globally unique address (factory default)" size="3" pos="0" show="False" value="0" unmaskedvalue="000000"/>
      <field name="eth.dst.ig" showname=".... ...0 .... .... .... .... = IG bit: Individual address (unicast)" size="3" pos="0" show="False" value="0" unmaskedvalue="000000"/>
      <field name="eth.addr" showname="Address: 00:00:00_00:00:00 (00:00:00:00:00:00)" hide="yes" size="6" pos="0" show="00:00:00:00:00:00" value="000000000000"/>
      <field name="eth.addr_resolved" showname="Address (resolved): 00:00:00_00:00:00" hide="yes" size="6" pos="0" show="00:00:00_00:00:00" value="000000000000"/>
      <field name="eth.addr.oui" showname="Address OUI: 00:00:00 (Officially Xerox, but 0:0:0:0:0:0 is more common)" hide="yes" size="3" pos="0" show="0" value="000000"/>
      <field name="eth.addr.oui_resolved" showname="Address OUI (resolved): Officially Xerox, but 0:0:0:0:0:0 is more common" hide="yes" size="6" pos="0" show="Officially Xerox, but 0:0:0:0:0:0 is more common" value="000000000000"/>
      <field name="eth.lg" showname=".... ..0. .... .... .... .... = LG bit: Globally unique address (factory default)" hide="yes" size="3" pos="0" show="False" value="0" unmaskedvalue="000000"/>
      <field name="eth.ig" showname=".... ...0 .... .... .... .... = IG bit: Individual address (unicast)" hide="yes" size="3" pos="0" show="False" value="0" unmaskedvalue="000000"/>
    </field>
    <field name="eth.src" showname="Source: 00:00:00_00:00:00 (00:00:00:00:00:00)" size="6" pos="6" show="00:00:00:00:00:00" value="000000000000">
      <field name="eth.src_resolved" showname="Source (resolved): 00:00:00_00:00:00" hide="yes" size="6" pos="6" show="00:00:00_00:00:00" value="000000000000"/>
      <field name="eth.src.oui" showname="Source OUI: 00:00:00 (Officially Xerox, but 0:0:0:0:0:0 is more common)" hide="yes" size="3" pos="6" show="0" value="000000"/>
      <field name="eth.src.oui_resolved" showname="Source OUI (resolved): Officially Xerox, but 0:0:0:0:0:0 is more common" hide="yes" size="6" pos="6" show="Officially Xerox, but 0:0:0:0:0:0 is more common" value="000000000000"/>
      <field name="eth.src.lg" showname=".... ..0. .... .... .... .... = LG bit: Globally unique address (factory default)" size="3" pos="6" show="False" value="0" unmaskedvalue="000000"/>
      <field name="eth.src.ig" showname=".... ...0 .... .... .... .... = IG bit: Individual address (unicast)" size="3" pos="6" show="False" value="0" unmaskedvalue="000000"/>
      <field name="eth.addr" showname="Address: 00:00:00_00:00:00 (00:00:00:00:00:00)" hide="yes" size="6" pos="6" show="00:00:00:00:00:00" value="000000000000"/>
      <field name="eth.addr_resolved" showname="Address (resolved): 00:00:00_00:00:00" hide="yes" size="6" pos="6" show="00:00:00_00:00:00" value="000000000000"/>
      <field name="eth.addr.oui" showname="Address OUI: 00:00:00 (Officially Xerox, but 0:0:0:0:0:0 is more common)" hide="yes" size="3" pos="6" show="0" value="000000"/>
      <field name="eth.addr.oui_resolved" showname="Address OUI (resolved): Officially Xerox, but 0:0:0:0:0:0 is more common" hide="yes" size="6" pos="6" show="Officially Xerox, but 0:0:0:0:0:0 is more common" value="000000000000"/>
      <field name="eth.lg" showname=".... ..0. .... .... .... .... = LG bit: Globally unique address (factory default)" hide="yes" size="3" pos="6" show="False" value="0" unmaskedvalue="000000"/>
      <field name="eth.ig" showname=".... ...0 .... .... .... .... = IG bit: Individual address (unicast)" hide="yes" size="3" pos="6" show="False" value="0" unmaskedvalue="000000"/>
    </field>
    <field name="eth.type" showname="Type: IPv4 (0x0800)" size="2" pos="12" show="0x0800" value="0800"/>
    <field name="eth.stream" showname="Stream index: 0" size="0" pos="0" show="0"/>
  </proto>
  <proto name="ip" showname="Internet Protocol Version 4, Src: 10.105.43.26, Dst: 10.71.248.125" size="20" pos="14">
    <field name="ip.version" showname="0100 .... = Version: 4" size="1" pos="14" show="4" value="45"/>
    <field name="ip.hdr_len" showname=".... 0101 = Header Length: 20 bytes (5)" size="1" pos="14" show="20" value="45"/>
    <field name="ip.dsfield" showname="Differentiated Services Field: 0xb8 (DSCP: EF PHB, ECN: Not-ECT)" size="1" pos="15" show="0xb8" value="b8">
      <field name="ip.dsfield.dscp" showname="1011 10.. = Differentiated Services Codepoint: Expedited Forwarding (46)" size="1" pos="15" show="46" value="2E" unmaskedvalue="b8"/>
      <field name="ip.dsfield.ecn" showname=".... ..00 = Explicit Congestion Notification: Not ECN-Capable Transport (0)" size="1" pos="15" show="0" value="0" unmaskedvalue="b8"/>
    </field>
    <field name="ip.len" showname="Total Length: 77" size="2" pos="16" show="77" value="004d"/>
    <field name="ip.id" showname="Identification: 0x22cb (8907)" size="2" pos="18" show="0x22cb" value="22cb"/>
    <field name="ip.flags" showname="000. .... = Flags: 0x0" size="1" pos="20" show="0x00" value="0" unmaskedvalue="00">
      <field name="ip.flags.rb" showname="0... .... = Reserved bit: Not set" size="1" pos="20" show="False" value="0" unmaskedvalue="00"/>
      <field name="ip.flags.df" showname=".0.. .... = Don&#x27;t fragment: Not set" size="1" pos="20" show="False" value="0" unmaskedvalue="00"/>
      <field name="ip.flags.mf" showname="..0. .... = More fragments: Not set" size="1" pos="20" show="False" value="0" unmaskedvalue="00"/>
    </field>
    <field name="ip.frag_offset" showname="...0 0000 0000 0000 = Fragment Offset: 0" size="2" pos="20" show="0" value="0" unmaskedvalue="0000"/>
    <field name="ip.ttl" showname="Time to Live: 254" size="1" pos="22" show="254" value="fe"/>
    <field name="ip.proto" showname="Protocol: SCTP (132)" size="1" pos="23" show="132" value="84"/>
    <field name="ip.checksum" showname="Header Checksum: 0x6062 [validation disabled]" size="2" pos="24" show="0x6062" value="6062"/>
    <field name="ip.checksum.status" showname="Header checksum status: Unverified" size="0" pos="24" show="2"/>
    <field name="ip.src" showname="Source Address: 10.105.43.26" size="4" pos="26" show="10.105.43.26" value="0a692b1a"/>
    <field name="ip.addr" showname="Source or Destination Address: 10.105.43.26" hide="yes" size="4" pos="26" show="10.105.43.26" value="0a692b1a"/>
    <field name="ip.src_host" showname="Source Host: 10.105.43.26" hide="yes" size="4" pos="26" show="10.105.43.26" value="0a692b1a"/>
    <field name="ip.host" showname="Source or Destination Host: 10.105.43.26" hide="yes" size="4" pos="26" show="10.105.43.26" value="0a692b1a"/>
    <field name="ip.dst" showname="Destination Address: 10.71.248.125" size="4" pos="30" show="10.71.248.125" value="0a47f87d"/>
    <field name="ip.addr" showname="Source or Destination Address: 10.71.248.125" hide="yes" size="4" pos="30" show="10.71.248.125" value="0a47f87d"/>
    <field name="ip.dst_host" showname="Destination Host: 10.71.248.125" hide="yes" size="4" pos="30" show="10.71.248.125" value="0a47f87d"/>
    <field name="ip.host" showname="Source or Destination Host: 10.71.248.125" hide="yes" size="4" pos="30" show="10.71.248.125" value="0a47f87d"/>
    <field name="ip.stream" showname="Stream index: 0" size="0" pos="34" show="0"/>
  </proto>
  <proto name="sctp" showname="Stream Control Transmission Protocol, Src Port: 38412 (38412), Dst Port: 38412 (38412)" size="28" pos="34">
    <field name="sctp.srcport" showname="Source port: 38412" size="2" pos="34" show="38412" value="960c"/>
    <field name="sctp.dstport" showname="Destination port: 38412" size="2" pos="36" show="38412" value="960c"/>
    <field name="sctp.verification_tag" showname="Verification tag: 0xd1d212df" size="4" pos="38" show="0xd1d212df" value="d1d212df"/>
    <field name="sctp.assoc_index" showname="Association index: disabled (enable in preferences)" size="0" pos="34" show="65535"/>
    <field name="sctp.port" showname="Port: 38412" hide="yes" size="2" pos="34" show="38412" value="960c"/>
    <field name="sctp.port" showname="Port: 38412" hide="yes" size="2" pos="36" show="38412" value="960c"/>
    <field name="sctp.checksum" showname="Checksum: 0xe381518c [unverified]" size="4" pos="42" show="0xe381518c" value="e381518c"/>
    <field name="sctp.checksum.status" showname="Checksum Status: Unverified" size="0" pos="42" show="2"/>
    <field name="sctp.chunk" showname="DATA chunk (ordered, complete segment, TSN: 0, SID: 0, SSN: 76, PPID: 60, payload length: 29 bytes)" size="16" pos="46" show="" value="">
      <field name="sctp.chunk_type" showname="Chunk type: DATA (0)" size="1" pos="46" show="0" value="00">
        <field name="sctp.chunk_bit_1" showname="0... .... = Bit: Stop processing of the packet" size="1" pos="46" show="False" value="0" unmaskedvalue="00"/>
        <field name="sctp.chunk_bit_2" showname=".0.. .... = Bit: Do not report" size="1" pos="46" show="False" value="0" unmaskedvalue="00"/>
      </field>
      <field name="sctp.chunk_flags" showname="Chunk flags: 0x03" size="1" pos="47" show="0x03" value="03">
        <field name="sctp.data_i_bit" showname=".... 0... = I-Bit: Possibly delay SACK" size="1" pos="47" show="False" value="0" unmaskedvalue="03"/>
        <field name="sctp.data_u_bit" showname=".... .0.. = U-Bit: Ordered delivery" size="1" pos="47" show="False" value="0" unmaskedvalue="03"/>
        <field name="sctp.data_b_bit" showname=".... ..1. = B-Bit: First segment" size="1" pos="47" show="True" value="1" unmaskedvalue="03"/>
        <field name="sctp.data_e_bit" showname=".... ...1 = E-Bit: Last segment" size="1" pos="47" show="True" value="1" unmaskedvalue="03"/>
      </field>
      <field name="sctp.chunk_length" showname="Chunk length: 45" size="2" pos="48" show="45" value="002d"/>
      <field name="sctp.data_tsn" showname="Transmission sequence number (relative): 0" size="4" pos="50" show="0" value="d472812f"/>
      <field name="sctp.data_tsn_raw" showname="Transmission sequence number (absolute): 3564273967" size="4" pos="50" show="3564273967" value="d472812f"/>
      <field name="sctp.data_sid" showname="Stream identifier: 0x0000" size="2" pos="54" show="0x0000" value="0000"/>
      <field name="sctp.data_ssn" showname="Stream sequence number: 76" size="2" pos="56" show="76" value="004c"/>
      <field name="sctp.data_payload_proto_id" showname="Payload protocol identifier: NGAP (60)" size="4" pos="58" show="60" value="0000003c"/>
    </field>
  </proto>
  <proto name="ngap" showname="NG Application Protocol (Paging)" size="29" pos="62">
    <field name="per.extension_bit" showname="0... .... Extension Bit: False" hide="yes" size="1" pos="62" show="False" value="0" unmaskedvalue="00"/>
    <field name="per.choice_index" showname="Choice Index: 0" hide="yes" size="1" pos="62" show="0" value="00"/>
    <field name="ngap.NGAP_PDU" showname="NGAP-PDU: initiatingMessage (0)" size="29" pos="62" show="0" value="0018401900000200734007171400c000158d006740070002f810000765">
      <field name="ngap.initiatingMessage_element" showname="initiatingMessage" size="29" pos="62" show="" value="">
        <field name="ngap.procedureCode" showname="procedureCode: id-Paging (24)" size="1" pos="63" show="24" value="18"/>
        <field name="per.enum_index" showname="Enumerated Index: 1" hide="yes" size="1" pos="64" show="1" value="40"/>
        <field name="ngap.criticality" showname="criticality: ignore (1)" size="1" pos="64" show="1" value="40"/>
        <field name="per.open_type_length" showname="Open Type Length: 25" hide="yes" size="1" pos="65" show="25" value="19"/>
        <field name="ngap.value_element" showname="value" size="25" pos="66" show="" value="">
          <field name="ngap.Paging_element" showname="Paging" size="25" pos="66" show="" value="">
            <field name="per.extension_bit" showname="0... .... Extension Bit: False" hide="yes" size="1" pos="66" show="False" value="0" unmaskedvalue="00"/>
            <field name="per.sequence_of_length" showname="Sequence-Of Length: 2" hide="yes" size="2" pos="67" show="2" value="0002"/>
            <field name="ngap.protocolIEs" showname="protocolIEs: 2 items" size="22" pos="69" show="2" value="00734007171400c000158d006740070002f810000765">
              <field name="" show="Item 0: id-UEPagingIdentity" size="11" pos="69" value="00734007171400c000158d">
                <field name="ngap.ProtocolIE_Field_element" showname="ProtocolIE-Field" size="11" pos="69" show="" value="">
                  <field name="ngap.id" showname="id: id-UEPagingIdentity (115)" size="2" pos="69" show="115" value="0073"/>
                  <field name="per.enum_index" showname="Enumerated Index: 1" hide="yes" size="1" pos="71" show="1" value="40"/>
                  <field name="ngap.criticality" showname="criticality: ignore (1)" size="1" pos="71" show="1" value="40"/>
                  <field name="per.open_type_length" showname="Open Type Length: 7" hide="yes" size="1" pos="72" show="7" value="07"/>
                  <field name="ngap.value_element" showname="value" size="7" pos="73" show="" value="">
                    <field name="per.choice_index" showname="Choice Index: 0" hide="yes" size="1" pos="73" show="0" value="17"/>
                    <field name="ngap.UEPagingIdentity" showname="UEPagingIdentity: fiveG-S-TMSI (0)" size="7" pos="73" show="0" value="171400c000158d">
                      <field name="ngap.fiveG_S_TMSI_element" showname="fiveG-S-TMSI" size="7" pos="73" show="" value="">
                        <field name="per.extension_bit" showname=".0.. .... Extension Bit: False" hide="yes" size="1" pos="73" show="False" value="0" unmaskedvalue="17"/>
                        <field name="per.optional_field_bit" showname="..0. .... Optional Field Bit: False (iE-Extensions is NOT present)" hide="yes" size="1" pos="73" show="False" value="0" unmaskedvalue="17"/>
                        <field name="ngap.aMFSetID" showname="aMFSetID: b880 [bit length 10, 6 LSB pad bits, 1011 1000  10.. .... decimal value 738]" size="2" pos="73" show="b8:80" value="b880"/>
                        <field name="ngap.aMFPointer" showname="aMFPointer: 80 [bit length 6, 2 LSB pad bits, 1000 00.. decimal value 32]" size="1" pos="73" show="80" value="80"/>
                        <field name="ngap.fiveG_TMSI" showname="fiveG-TMSI: 3221230989 (0xc000158d)" size="4" pos="76" show="3221230989" value="c000158d"/>
                        <field name="3gpp.tmsi" showname="TMSI/P-TMSI/M-TMSI/5G-TMSI: 387186880 (0x171400c0)" hide="yes" size="4" pos="73" show="387186880" value="171400c0"/>
                      </field>
                    </field>
                  </field>
                </field>
              </field>
              <field name="" show="Item 1: id-TAIListForPaging" size="11" pos="80" value="006740070002f810000765">
                <field name="ngap.ProtocolIE_Field_element" showname="ProtocolIE-Field" size="11" pos="80" show="" value="">
                  <field name="ngap.id" showname="id: id-TAIListForPaging (103)" size="2" pos="80" show="103" value="0067"/>
                  <field name="per.enum_index" showname="Enumerated Index: 1" hide="yes" size="1" pos="82" show="1" value="40"/>
                  <field name="ngap.criticality" showname="criticality: ignore (1)" size="1" pos="82" show="1" value="40"/>
                  <field name="per.open_type_length" showname="Open Type Length: 7" hide="yes" size="1" pos="83" show="7" value="07"/>
                  <field name="ngap.value_element" showname="value" size="7" pos="84" show="" value="">
                    <field name="per.sequence_of_length" showname="Sequence-Of Length: 1" hide="yes" size="1" pos="84" show="1" value="00"/>
                    <field name="ngap.TAIListForPaging" showname="TAIListForPaging: 1 item" size="7" pos="84" show="1" value="0002f810000765">
                      <field name="" show="Item 0" size="7" pos="84" value="0002f810000765">
                        <field name="ngap.TAIListForPagingItem_element" showname="TAIListForPagingItem" size="7" pos="84" show="" value="">
                          <field name="per.extension_bit" showname=".... 0... Extension Bit: False" hide="yes" size="1" pos="84" show="False" value="0" unmaskedvalue="00"/>
                          <field name="per.optional_field_bit" showname=".... .0.. Optional Field Bit: False (iE-Extensions is NOT present)" hide="yes" size="1" pos="84" show="False" value="0" unmaskedvalue="00"/>
                          <field name="ngap.tAI_element" showname="tAI" size="7" pos="84" show="" value="">
                            <field name="per.extension_bit" showname=".... ..0. Extension Bit: False" hide="yes" size="1" pos="84" show="False" value="0" unmaskedvalue="00"/>
                            <field name="per.optional_field_bit" showname=".... ...0 Optional Field Bit: False (iE-Extensions is NOT present)" hide="yes" size="1" pos="84" show="False" value="0" unmaskedvalue="00"/>
                            <field name="ngap.pLMNIdentity" showname="pLMNIdentity: 02f810" size="3" pos="85" show="02:f8:10" value="02f810">
                              <field name="e212.5gstai.mcc" showname="Mobile Country Code (MCC): France (208)" size="2" pos="85" show="208" value="02f8"/>
                              <field name="e212.5gstai.mnc" showname="Mobile Network Code (MNC): Orange (01)" size="2" pos="86" show="01" value="f810"/>
                            </field>
                            <field name="ngap.tAC" showname="tAC: 1893 (0x000765)" size="3" pos="88" show="1893" value="000765"/>
                          </field>
                        </field>
                      </field>
                    </field>
                  </field>
                </field>
              </field>
            </field>
          </field>
        </field>
      </field>
    </field>
  </proto>
</packet>

<packet>
  <proto name="geninfo" pos="0" showname="General information" size="215">
    <field name="num" pos="0" show="2" showname="Number" value="2" size="215"/>
    <field name="len" pos="0" show="215" showname="Frame Length" value="d7" size="215"/>
    <field name="caplen" pos="0" show="215" showname="Captured Length" value="d7" size="215"/>
    <field name="timestamp" pos="0" show="Oct 10, 2024 16:50:45.847565899 CEST" showname="Captured Time" value="1728571845.847565899" size="215"/>
  </proto>
  <proto name="frame" showname="Frame 2: 215 bytes on wire (1720 bits), 215 bytes captured (1720 bits)" size="215" pos="0">
    <field name="frame.encap_type" showname="Encapsulation type: Ethernet (1)" size="0" pos="0" show="1"/>
    <field name="frame.time" showname="Arrival Time: Oct 10, 2024 16:50:45.847565899 CEST" size="0" pos="0" show="Oct 10, 2024 16:50:45.847565899 CEST"/>
    <field name="frame.time_utc" showname="UTC Arrival Time: Oct 10, 2024 14:50:45.847565899 UTC" size="0" pos="0" show="Oct 10, 2024 14:50:45.847565899 UTC"/>
    <field name="frame.time_epoch" showname="Epoch Arrival Time: 1728571845.847565899" size="0" pos="0" show="1728571845.847565899"/>
    <field name="frame.offset_shift" showname="Time shift for this packet: 0.000000000 seconds" size="0" pos="0" show="0.000000000"/>
    <field name="frame.time_delta" showname="Time delta from previous captured frame: 1.157923990 seconds" size="0" pos="0" show="1.157923990"/>
    <field name="frame.time_delta_displayed" showname="Time delta from previous displayed frame: 1.157923990 seconds" size="0" pos="0" show="1.157923990"/>
    <field name="frame.time_relative" showname="Time since reference or first frame: 1.157923990 seconds" size="0" pos="0" show="1.157923990"/>
    <field name="frame.number" showname="Frame Number: 2" size="0" pos="0" show="2"/>
    <field name="frame.len" showname="Frame Length: 215 bytes (1720 bits)" size="0" pos="0" show="215"/>
    <field name="frame.cap_len" showname="Capture Length: 215 bytes (1720 bits)" size="0" pos="0" show="215"/>
    <field name="frame.marked" showname="Frame is marked: False" size="0" pos="0" show="False"/>
    <field name="frame.ignored" showname="Frame is ignored: False" size="0" pos="0" show="False"/>
    <field name="frame.protocols" showname="Protocols in frame: eth:ethertype:ip:sctp:ngap:ngap:nas-5gs" size="0" pos="0" show="eth:ethertype:ip:sctp:ngap:ngap:nas-5gs"/>
  </proto>
  <proto name="eth" showname="Ethernet II, Src: 00:00:00_00:00:00 (00:00:00:00:00:00), Dst: 00:00:00_00:00:00 (00:00:00:00:00:00)" size="14" pos="0">
    <field name="eth.dst" showname="Destination: 00:00:00_00:00:00 (00:00:00:00:00:00)" size="6" pos="0" show="00:00:00:00:00:00" value="000000000000">
      <field name="eth.dst_resolved" showname="Destination (resolved): 00:00:00_00:00:00" hide="yes" size="6" pos="0" show="00:00:00_00:00:00" value="000000000000"/>
      <field name="eth.dst.oui" showname="Destination OUI: 00:00:00 (Officially Xerox, but 0:0:0:0:0:0 is more common)" hide="yes" size="3" pos="0" show="0" value="000000"/>
      <field name="eth.dst.oui_resolved" showname="Destination OUI (resolved): Officially Xerox, but 0:0:0:0:0:0 is more common" hide="yes" size="6" pos="0" show="Officially Xerox, but 0:0:0:0:0:0 is more common" value="000000000000"/>
      <field name="eth.dst.lg" showname=".... ..0. .... .... .... .... = LG bit: Globally unique address (factory default)" size="3" pos="0" show="False" value="0" unmaskedvalue="000000"/>
      <field name="eth.dst.ig" showname=".... ...0 .... .... .... .... = IG bit: Individual address (unicast)" size="3" pos="0" show="False" value="0" unmaskedvalue="000000"/>
      <field name="eth.addr" showname="Address: 00:00:00_00:00:00 (00:00:00:00:00:00)" hide="yes" size="6" pos="0" show="00:00:00:00:00:00" value="000000000000"/>
      <field name="eth.addr_resolved" showname="Address (resolved): 00:00:00_00:00:00" hide="yes" size="6" pos="0" show="00:00:00_00:00:00" value="000000000000"/>
      <field name="eth.addr.oui" showname="Address OUI: 00:00:00 (Officially Xerox, but 0:0:0:0:0:0 is more common)" hide="yes" size="3" pos="0" show="0" value="000000"/>
      <field name="eth.addr.oui_resolved" showname="Address OUI (resolved): Officially Xerox, but 0:0:0:0:0:0 is more common" hide="yes" size="6" pos="0" show="Officially Xerox, but 0:0:0:0:0:0 is more common" value="000000000000"/>
      <field name="eth.lg" showname=".... ..0. .... .... .... .... = LG bit: Globally unique address (factory default)" hide="yes" size="3" pos="0" show="False" value="0" unmaskedvalue="000000"/>
      <field name="eth.ig" showname=".... ...0 .... .... .... .... = IG bit: Individual address (unicast)" hide="yes" size="3" pos="0" show="False" value="0" unmaskedvalue="000000"/>
    </field>
    <field name="eth.src" showname="Source: 00:00:00_00:00:00 (00:00:00:00:00:00)" size="6" pos="6" show="00:00:00:00:00:00" value="000000000000">
      <field name="eth.src_resolved" showname="Source (resolved): 00:00:00_00:00:00" hide="yes" size="6" pos="6" show="00:00:00_00:00:00" value="000000000000"/>
      <field name="eth.src.oui" showname="Source OUI: 00:00:00 (Officially Xerox, but 0:0:0:0:0:0 is more common)" hide="yes" size="3" pos="6" show="0" value="000000"/>
      <field name="eth.src.oui_resolved" showname="Source OUI (resolved): Officially Xerox, but 0:0:0:0:0:0 is more common" hide="yes" size="6" pos="6" show="Officially Xerox, but 0:0:0:0:0:0 is more common" value="000000000000"/>
      <field name="eth.src.lg" showname=".... ..0. .... .... .... .... = LG bit: Globally unique address (factory default)" size="3" pos="6" show="False" value="0" unmaskedvalue="000000"/>
      <field name="eth.src.ig" showname=".... ...0 .... .... .... .... = IG bit: Individual address (unicast)" size="3" pos="6" show="False" value="0" unmaskedvalue="000000"/>
      <field name="eth.addr" showname="Address: 00:00:00_00:00:00 (00:00:00:00:00:00)" hide="yes" size="6" pos="6" show="00:00:00:00:00:00" value="000000000000"/>
      <field name="eth.addr_resolved" showname="Address (resolved): 00:00:00_00:00:00" hide="yes" size="6" pos="6" show="00:00:00_00:00:00" value="000000000000"/>
      <field name="eth.addr.oui" showname="Address OUI: 00:00:00 (Officially Xerox, but 0:0:0:0:0:0 is more common)" hide="yes" size="3" pos="6" show="0" value="000000"/>
      <field name="eth.addr.oui_resolved" showname="Address OUI (resolved): Officially Xerox, but 0:0:0:0:0:0 is more common" hide="yes" size="6" pos="6" show="Officially Xerox, but 0:0:0:0:0:0 is more common" value="000000000000"/>
      <field name="eth.lg" showname=".... ..0. .... .... .... .... = LG bit: Globally unique address (factory default)" hide="yes" size="3" pos="6" show="False" value="0" unmaskedvalue="000000"/>
      <field name="eth.ig" showname=".... ...0 .... .... .... .... = IG bit: Individual address (unicast)" hide="yes" size="3" pos="6" show="False" value="0" unmaskedvalue="000000"/>
    </field>
    <field name="eth.type" showname="Type: IPv4 (0x0800)" size="2" pos="12" show="0x0800" value="0800"/>
    <field name="eth.stream" showname="Stream index: 0" size="0" pos="0" show="0"/>
  </proto>
  <proto name="ip" showname="Internet Protocol Version 4, Src: 10.71.248.125, Dst: 10.105.43.26" size="20" pos="14">
    <field name="ip.version" showname="0100 .... = Version: 4" size="1" pos="14" show="4" value="45"/>
    <field name="ip.hdr_len" showname=".... 0101 = Header Length: 20 bytes (5)" size="1" pos="14" show="20" value="45"/>
    <field name="ip.dsfield" showname="Differentiated Services Field: 0xba (DSCP: EF PHB, ECN: ECT(0))" size="1" pos="15" show="0xba" value="ba">
      <field name="ip.dsfield.dscp" showname="1011 10.. = Differentiated Services Codepoint: Expedited Forwarding (46)" size="1" pos="15" show="46" value="2E" unmaskedvalue="ba"/>
      <field name="ip.dsfield.ecn" showname=".... ..10 = Explicit Congestion Notification: ECN-Capable Transport codepoint &#x27;10&#x27; (2)" size="1" pos="15" show="2" value="2" unmaskedvalue="ba"/>
    </field>
    <field name="ip.len" showname="Total Length: 201" size="2" pos="16" show="201" value="00c9"/>
    <field name="ip.id" showname="Identification: 0x3fea (16362)" size="2" pos="18" show="0x3fea" value="3fea"/>
    <field name="ip.flags" showname="000. .... = Flags: 0x0" size="1" pos="20" show="0x00" value="0" unmaskedvalue="00">
      <field name="ip.flags.rb" showname="0... .... = Reserved bit: Not set" size="1" pos="20" show="False" value="0" unmaskedvalue="00"/>
      <field name="ip.flags.df" showname=".0.. .... = Don&#x27;t fragment: Not set" size="1" pos="20" show="False" value="0" unmaskedvalue="00"/>
      <field name="ip.flags.mf" showname="..0. .... = More fragments: Not set" size="1" pos="20" show="False" value="0" unmaskedvalue="00"/>
    </field>
    <field name="ip.frag_offset" showname="...0 0000 0000 0000 = Fragment Offset: 0" size="2" pos="20" show="0" value="0" unmaskedvalue="0000"/>
    <field name="ip.ttl" showname="Time to Live: 248" size="1" pos="22" show="248" value="f8"/>
    <field name="ip.proto" showname="Protocol: SCTP (132)" size="1" pos="23" show="132" value="84"/>
    <field name="ip.checksum" showname="Header Checksum: 0x48c5 [validation disabled]" size="2" pos="24" show="0x48c5" value="48c5"/>
    <field name="ip.checksum.status" showname="Header checksum status: Unverified" size="0" pos="24" show="2"/>
    <field name="ip.src" showname="Source Address: 10.71.248.125" size="4" pos="26" show="10.71.248.125" value="0a47f87d"/>
    <field name="ip.addr" showname="Source or Destination Address: 10.71.248.125" hide="yes" size="4" pos="26" show="10.71.248.125" value="0a47f87d"/>
    <field name="ip.src_host" showname="Source Host: 10.71.248.125" hide="yes" size="4" pos="26" show="10.71.248.125" value="0a47f87d"/>
    <field name="ip.host" showname="Source or Destination Host: 10.71.248.125" hide="yes" size="4" pos="26" show="10.71.248.125" value="0a47f87d"/>
    <field name="ip.dst" showname="Destination Address: 10.105.43.26" size="4" pos="30" show="10.105.43.26" value="0a692b1a"/>
    <field name="ip.addr" showname="Source or Destination Address: 10.105.43.26" hide="yes" size="4" pos="30" show="10.105.43.26" value="0a692b1a"/>
    <field name="ip.dst_host" showname="Destination Host: 10.105.43.26" hide="yes" size="4" pos="30" show="10.105.43.26" value="0a692b1a"/>
    <field name="ip.host" showname="Source or Destination Host: 10.105.43.26" hide="yes" size="4" pos="30" show="10.105.43.26" value="0a692b1a"/>
    <field name="ip.stream" showname="Stream index: 0" size="0" pos="34" show="0"/>
  </proto>
  <proto name="sctp" showname="Stream Control Transmission Protocol, Src Port: 38412 (38412), Dst Port: 38412 (38412)" size="28" pos="34">
    <field name="sctp.srcport" showname="Source port: 38412" size="2" pos="34" show="38412" value="960c"/>
    <field name="sctp.dstport" showname="Destination port: 38412" size="2" pos="36" show="38412" value="960c"/>
    <field name="sctp.verification_tag" showname="Verification tag: 0xc2c62adc" size="4" pos="38" show="0xc2c62adc" value="c2c62adc"/>
    <field name="sctp.assoc_index" showname="Association index: disabled (enable in preferences)" size="0" pos="34" show="65535"/>
    <field name="sctp.port" showname="Port: 38412" hide="yes" size="2" pos="34" show="38412" value="960c"/>
    <field name="sctp.port" showname="Port: 38412" hide="yes" size="2" pos="36" show="38412" value="960c"/>
    <field name="sctp.checksum" showname="Checksum: 0xb4510759 [unverified]" size="4" pos="42" show="0xb4510759" value="b4510759"/>
    <field name="sctp.checksum.status" showname="Checksum Status: Unverified" size="0" pos="42" show="2"/>
    <field name="sctp.chunk" showname="DATA chunk (ordered, complete segment, TSN: 0, SID: 1, SSN: 3523, PPID: 60, payload length: 153 bytes)" size="16" pos="46" show="" value="">
      <field name="sctp.chunk_type" showname="Chunk type: DATA (0)" size="1" pos="46" show="0" value="00">
        <field name="sctp.chunk_bit_1" showname="0... .... = Bit: Stop processing of the packet" size="1" pos="46" show="False" value="0" unmaskedvalue="00"/>
        <field name="sctp.chunk_bit_2" showname=".0.. .... = Bit: Do not report" size="1" pos="46" show="False" value="0" unmaskedvalue="00"/>
      </field>
      <field name="sctp.chunk_flags" showname="Chunk flags: 0x03" size="1" pos="47" show="0x03" value="03">
        <field name="sctp.data_i_bit" showname=".... 0... = I-Bit: Possibly delay SACK" size="1" pos="47" show="False" value="0" unmaskedvalue="03"/>
        <field name="sctp.data_u_bit" showname=".... .0.. = U-Bit: Ordered delivery" size="1" pos="47" show="False" value="0" unmaskedvalue="03"/>
        <field name="sctp.data_b_bit" showname=".... ..1. = B-Bit: First segment" size="1" pos="47" show="True" value="1" unmaskedvalue="03"/>
        <field name="sctp.data_e_bit" showname=".... ...1 = E-Bit: Last segment" size="1" pos="47" show="True" value="1" unmaskedvalue="03"/>
      </field>
      <field name="sctp.chunk_length" showname="Chunk length: 169" size="2" pos="48" show="169" value="00a9"/>
      <field name="sctp.data_tsn" showname="Transmission sequence number (relative): 0" size="4" pos="50" show="0" value="1a61deca"/>
      <field name="sctp.data_tsn_raw" showname="Transmission sequence number (absolute): 442621642" size="4" pos="50" show="442621642" value="1a61deca"/>
      <field name="sctp.data_sid" showname="Stream identifier: 0x0001" size="2" pos="54" show="0x0001" value="0001"/>
      <field name="sctp.data_ssn" showname="Stream sequence number: 3523" size="2" pos="56" show="3523" value="0dc3"/>
      <field name="sctp.data_payload_proto_id" showname="Payload protocol identifier: NGAP (60)" size="4" pos="58" show="60" value="0000003c"/>
    </field>
  </proto>
  <proto name="ngap" showname="NG Application Protocol (InitialUEMessage)" size="153" pos="62">
    <field name="per.extension_bit" showname="0... .... Extension Bit: False" hide="yes" size="1" pos="62" show="False" value="0" unmaskedvalue="00"/>
    <field name="per.choice_index" showname="Choice Index: 0" hide="yes" size="1" pos="62" show="0" value="00"/>
    <field name="ngap.NGAP_PDU" showname="NGAP-PDU: initiatingMessage (0)" size="153" pos="62" show="0" value="000f408094000005005500048003c51e00260062617e010eb7f82a0d7e004112000bf202f81088b8a0c000158d2e04f070f0707100405bcb7d22dd2f06aa1bf1e2d462803cc0a79281309b985caf98451e138b260138fffdfae5976ef75bd2fbd09074319e5814531fa1916202b1248172fd9b0049980079000f4002f810400944002002f810000765005a400118001a00072e2800c000158d">
      <field name="ngap.initiatingMessage_element" showname="initiatingMessage" size="153" pos="62" show="" value="">
        <field name="ngap.procedureCode" showname="procedureCode: id-InitialUEMessage (15)" size="1" pos="63" show="15" value="0f"/>
        <field name="per.enum_index" showname="Enumerated Index: 1" hide="yes" size="1" pos="64" show="1" value="40"/>
        <field name="ngap.criticality" showname="criticality: ignore (1)" size="1" pos="64" show="1" value="40"/>
        <field name="per.open_type_length" showname="Open Type Length: 148" hide="yes" size="2" pos="65" show="148" value="8094"/>
        <field name="ngap.value_element" showname="value" size="148" pos="67" show="" value="">
          <field name="ngap.InitialUEMessage_element" showname="InitialUEMessage" size="148" pos="67" show="" value="">
            <field name="per.extension_bit" showname="0... .... Extension Bit: False" hide="yes" size="1" pos="67" show="False" value="0" unmaskedvalue="00"/>
            <field name="per.sequence_of_length" showname="Sequence-Of Length: 5" hide="yes" size="2" pos="68" show="5" value="0005"/>
            <field name="ngap.protocolIEs" showname="protocolIEs: 5 items" size="145" pos="70" show="5" value="005500048003c51e00260062617e010eb7f82a0d7e004112000bf202f81088b8a0c000158d2e04f070f0707100405bcb7d22dd2f06aa1bf1e2d462803cc0a79281309b985caf98451e138b260138fffdfae5976ef75bd2fbd09074319e5814531fa1916202b1248172fd9b0049980079000f4002f810400944002002f810000765005a400118001a00072e2800c000158d">
              <field name="" show="Item 0: id-RAN-UE-NGAP-ID" size="8" pos="70" value="005500048003c51e">
                <field name="ngap.ProtocolIE_Field_element" showname="ProtocolIE-Field" size="8" pos="70" show="" value="">
                  <field name="ngap.id" showname="id: id-RAN-UE-NGAP-ID (85)" size="2" pos="70" show="85" value="0055"/>
                  <field name="per.enum_index" showname="Enumerated Index: 0" hide="yes" size="1" pos="72" show="0" value="00"/>
                  <field name="ngap.criticality" showname="criticality: reject (0)" size="1" pos="72" show="0" value="00"/>
                  <field name="per.open_type_length" showname="Open Type Length: 4" hide="yes" size="1" pos="73" show="4" value="04"/>
                  <field name="ngap.value_element" showname="value" size="4" pos="74" show="" value="">
                    <field name="ngap.RAN_UE_NGAP_ID" showname="RAN-UE-NGAP-ID: 247070" size="4" pos="74" show="247070" value="8003c51e"/>
                  </field>
                </field>
              </field>
              <field name="" show="Item 1: id-NAS-PDU" size="102" pos="78" value="00260062617e010eb7f82a0d7e004112000bf202f81088b8a0c000158d2e04f070f0707100405bcb7d22dd2f06aa1bf1e2d462803cc0a79281309b985caf98451e138b260138fffdfae5976ef75bd2fbd09074319e5814531fa1916202b1248172fd9b004998">
                <field name="ngap.ProtocolIE_Field_element" showname="ProtocolIE-Field" size="102" pos="78" show="" value="">
                  <field name="ngap.id" showname="id: id-NAS-PDU (38)" size="2" pos="78" show="38" value="0026"/>
                  <field name="per.enum_index" showname="Enumerated Index: 0" hide="yes" size="1" pos="80" show="0" value="00"/>
                  <field name="ngap.criticality" showname="criticality: reject (0)" size="1" pos="80" show="0" value="00"/>
                  <field name="per.open_type_length" showname="Open Type Length: 98" hide="yes" size="1" pos="81" show="98" value="62"/>
                  <field name="ngap.value_element" showname="value" size="98" pos="82" show="" value="">
                    <field name="per.octet_string_length" showname="Octet String Length: 97" hide="yes" size="1" pos="82" show="97" value="61"/>
                    <field name="ngap.NAS_PDU" showname="NAS-PDU: 7e010eb7f82a0d7e004112000bf202f81088b8a0c000158d2e04f070f0707100405bcb7d22dd2f06aa1bf1e2d462803cc0a79281309b985caf98451e138b260138fffdfae5976ef75bd2fbd09074319e5814531fa1916202b1248172fd9b004998" size="97" pos="83" show="7e:01:0e:b7:f8:2a:0d:7e:00:41:12:00:0b:f2:02:f8:10:88:b8:a0:c0:00:15:8d:2e:04:f0:70:f0:70:71:00:40:5b:cb:7d:22:dd:2f:06:aa:1b:f1:e2:d4:62:80:3c:c0:a7:92:81:30:9b:98:5c:af:98:45:1e:13:8b:26:01:38:ff:fd:fa:e5:97:6e:f7:5b:d2:fb:d0:90:74:31:9e:58:14:53:1f:a1:91:62:02:b1:24:81:72:fd:9b:00:49:98" value="7e010eb7f82a0d7e004112000bf202f81088b8a0c000158d2e04f070f0707100405bcb7d22dd2f06aa1bf1e2d462803cc0a79281309b985caf98451e138b260138fffdfae5976ef75bd2fbd09074319e5814531fa1916202b1248172fd9b004998">
                      <proto name="nas-5gs" showname="Non-Access-Stratum 5GS (NAS)PDU" size="97" pos="83">
                        <field name="" show="Security protected NAS 5GS message" size="7" pos="83" value="7e010eb7f82a0d">
                          <field name="nas-5gs.epd" showname="Extended protocol discriminator: 5G mobility management messages (126)" size="1" pos="83" show="126" value="7e"/>
                          <field name="nas-5gs.spare_half_octet" showname="0000 .... = Spare Half Octet: 0" size="1" pos="84" show="0" value="0" unmaskedvalue="01"/>
                          <field name="nas-5gs.security_header_type" showname=".... 0001 = Security header type: Integrity protected (1)" size="1" pos="84" show="1" value="1" unmaskedvalue="01"/>
                          <field name="nas-5gs.msg_auth_code" showname="Message authentication code: 0x0eb7f82a" size="4" pos="85" show="0x0eb7f82a" value="0eb7f82a"/>
                          <field name="nas-5gs.seq_no" showname="Sequence number: 13" size="1" pos="89" show="13" value="0d"/>
                        </field>
                        <field name="" show="Plain NAS 5GS Message" size="90" pos="90" value="7e004112000bf202f81088b8a0c000158d2e04f070f0707100405bcb7d22dd2f06aa1bf1e2d462803cc0a79281309b985caf98451e138b260138fffdfae5976ef75bd2fbd09074319e5814531fa1916202b1248172fd9b004998">
                          <field name="nas-5gs.epd" showname="Extended protocol discriminator: 5G mobility management messages (126)" size="1" pos="90" show="126" value="7e"/>
                          <field name="nas-5gs.spare_half_octet" showname="0000 .... = Spare Half Octet: 0" size="1" pos="91" show="0" value="0" unmaskedvalue="00"/>
                          <field name="nas-5gs.security_header_type" showname=".... 0000 = Security header type: Plain NAS message, not security protected (0)" size="1" pos="91" show="0" value="0" unmaskedvalue="00"/>
                          <field name="nas-5gs.mm.message_type" showname="Message type: Registration request (0x41)" size="1" pos="92" show="0x41" value="41"/>
                          <field name="" show="5GS registration type" size="1" pos="93" value="12">
                            <field name="nas-5gs.mm.for" showname=".... 0... = Follow-On Request bit (FOR): No follow-on request pending" size="1" pos="93" show="False" value="0" unmaskedvalue="12"/>
                            <field name="nas-5gs.mm.5gs_reg_type" showname=".... .010 = 5GS registration type: mobility registration updating (2)" size="1" pos="93" show="2" value="2" unmaskedvalue="12"/>
                          </field>
                          <field name="" show="NAS key set identifier" size="1" pos="93" value="12">
                            <field name="nas-5gs.mm.tsc.h1" showname="0... .... = Type of security context flag (TSC): Native security context (for KSIAMF)" size="1" pos="93" show="False" value="0" unmaskedvalue="12"/>
                            <field name="nas-5gs.mm.nas_key_set_id.h1" showname=".001 .... = NAS key set identifier: 1" size="1" pos="93" show="1" value="1" unmaskedvalue="12"/>
                          </field>
                          <field name="" show="5GS mobile identity" size="13" pos="94" value="000bf202f81088b8a0c000158d">
                            <field name="gsm_a.len" showname="Length: 11" size="2" pos="94" show="11" value="000b"/>
                            <field name="nas-5gs.spare_b7" showname="1... .... = Spare: 1" size="1" pos="96" show="1" value="1" unmaskedvalue="f2"/>
                            <field name="nas-5gs.spare_b6" showname=".1.. .... = Spare: 1" size="1" pos="96" show="1" value="1" unmaskedvalue="f2"/>
                            <field name="nas-5gs.spare_b5" showname="..1. .... = Spare: 1" size="1" pos="96" show="1" value="1" unmaskedvalue="f2"/>
                            <field name="nas-5gs.spare_b4" showname="...1 .... = Spare: 1" size="1" pos="96" show="1" value="1" unmaskedvalue="f2"/>
                            <field name="nas-5gs.spare_b3" showname=".... 0... = Spare: 0" size="1" pos="96" show="0" value="0" unmaskedvalue="f2"/>
                            <field name="nas-5gs.mm.type_id" showname=".... .010 = Type of identity: 5G-GUTI (2)" size="1" pos="96" show="2" value="2" unmaskedvalue="f2"/>
                            <field name="e212.guami.mcc" showname="Mobile Country Code (MCC): France (208)" size="2" pos="97" show="208" value="02f8"/>
                            <field name="e212.guami.mnc" showname="Mobile Network Code (MNC): Orange (01)" size="2" pos="98" show="01" value="f810"/>
                            <field name="nas-5gs.amf_region_id" showname="AMF Region ID: 136" size="1" pos="100" show="136" value="88"/>
                            <field name="nas-5gs.amf_set_id" showname="1011 1000 10.. .... = AMF Set ID: 738" size="2" pos="101" show="738" value="2E2" unmaskedvalue="b8a0"/>
                            <field name="nas-5gs.amf_pointer" showname="..10 0000 = AMF Pointer: 32" size="1" pos="102" show="32" value="20" unmaskedvalue="a0"/>
                            <field name="nas-5gs.5g_tmsi" showname="5G-TMSI: 3221230989 (0xc000158d)" size="4" pos="103" show="3221230989" value="c000158d"/>
                            <field name="3gpp.tmsi" showname="TMSI/P-TMSI/M-TMSI/5G-TMSI: 3221230989 (0xc000158d)" hide="yes" size="4" pos="103" show="3221230989" value="c000158d"/>
                          </field>
                          <field name="" show="UE security capability" size="6" pos="107" value="2e04f070f070">
                            <field name="nas-5gs.mm.elem_id" showname="Element ID: 0x2e" size="1" pos="107" show="0x2e" value="2e"/>
                            <field name="gsm_a.len" showname="Length: 4" size="1" pos="108" show="4" value="04"/>
                            <field name="nas-5gs.mm.5g_ea0" showname="1... .... = 5G-EA0: Supported" size="1" pos="109" show="True" value="1" unmaskedvalue="f0"/>
                            <field name="nas-5gs.mm.128_5g_ea1" showname=".1.. .... = 128-5G-EA1: Supported" size="1" pos="109" show="True" value="1" unmaskedvalue="f0"/>
                            <field name="nas-5gs.mm.128_5g_ea2" showname="..1. .... = 128-5G-EA2: Supported" size="1" pos="109" show="True" value="1" unmaskedvalue="f0"/>
                            <field name="nas-5gs.mm.128_5g_ea3" showname="...1 .... = 128-5G-EA3: Supported" size="1" pos="109" show="True" value="1" unmaskedvalue="f0"/>
                            <field name="nas-5gs.mm.5g_ea4" showname=".... 0... = 5G-EA4: Not supported" size="1" pos="109" show="False" value="0" unmaskedvalue="f0"/>
                            <field name="nas-5gs.mm.5g_ea5" showname=".... .0.. = 5G-EA5: Not supported" size="1" pos="109" show="False" value="0" unmaskedvalue="f0"/>
                            <field name="nas-5gs.mm.5g_ea6" showname=".... ..0. = 5G-EA6: Not supported" size="1" pos="109" show="False" value="0" unmaskedvalue="f0"/>
                            <field name="nas-5gs.mm.5g_ea7" showname=".... ...0 = 5G-EA7: Not supported" size="1" pos="109" show="False" value="0" unmaskedvalue="f0"/>
                            <field name="nas-5gs.mm.ia0" showname="0... .... = 5G-IA0: Not supported" size="1" pos="110" show="False" value="0" unmaskedvalue="70"/>
                            <field name="nas-5gs.mm.5g_128_ia1" showname=".1.. .... = 128-5G-IA1: Supported" size="1" pos="110" show="True" value="1" unmaskedvalue="70"/>
                            <field name="nas-5gs.mm.5g_128_ia2" showname="..1. .... = 128-5G-IA2: Supported" size="1" pos="110" show="True" value="1" unmaskedvalue="70"/>
                            <field name="nas-5gs.mm.5g_128_ia3" showname="...1 .... = 128-5G-IA3: Supported" size="1" pos="110" show="True" value="1" unmaskedvalue="70"/>
                            <field name="nas-5gs.mm.5g_128_ia4" showname=".... 0... = 5G-IA4: Not supported" size="1" pos="110" show="False" value="0" unmaskedvalue="70"/>
                            <field name="nas-5gs.mm.5g_ia5" showname=".... .0.. = 5G-IA5: Not supported" size="1" pos="110" show="False" value="0" unmaskedvalue="70"/>
                            <field name="nas-5gs.mm.5g_ia6" showname=".... ..0. = 5G-IA6: Not supported" size="1" pos="110" show="False" value="0" unmaskedvalue="70"/>
                            <field name="nas-5gs.mm.5g_ia7" showname=".... ...0 = 5G-IA7: Not supported" size="1" pos="110" show="False" value="0" unmaskedvalue="70"/>
                            <field name="nas-5gs.mm.eea0" showname="1... .... = EEA0: Supported" size="1" pos="111" show="True" value="1" unmaskedvalue="f0"/>
                            <field name="nas-5gs.mm.128eea1" showname=".1.. .... = 128-EEA1: Supported" size="1" pos="111" show="True" value="1" unmaskedvalue="f0"/>
                            <field name="nas-5gs.mm.128eea2" showname="..1. .... = 128-EEA2: Supported" size="1" pos="111" show="True" value="1" unmaskedvalue="f0"/>
                            <field name="nas-5gs.mm.eea3" showname="...1 .... = 128-EEA3: Supported" size="1" pos="111" show="True" value="1" unmaskedvalue="f0"/>
                            <field name="nas-5gs.mm.eea4" showname=".... 0... = EEA4: Not supported" size="1" pos="111" show="False" value="0" unmaskedvalue="f0"/>
                            <field name="nas-5gs.mm.eea5" showname=".... .0.. = EEA5: Not supported" size="1" pos="111" show="False" value="0" unmaskedvalue="f0"/>
                            <field name="nas-5gs.mm.eea6" showname=".... ..0. = EEA6: Not supported" size="1" pos="111" show="False" value="0" unmaskedvalue="f0"/>
                            <field name="nas-5gs.mm.eea7" showname=".... ...0 = EEA7: Not supported" size="1" pos="111" show="False" value="0" unmaskedvalue="f0"/>
                            <field name="nas-5gs.mm.eia0" showname="0... .... = EIA0: Not supported" size="1" pos="112" show="False" value="0" unmaskedvalue="70"/>
                            <field name="nas-5gs.mm.128eia1" showname=".1.. .... = 128-EIA1: Supported" size="1" pos="112" show="True" value="1" unmaskedvalue="70"/>
                            <field name="nas-5gs.mm.128eia2" showname="..1. .... = 128-EIA2: Supported" size="1" pos="112" show="True" value="1" unmaskedvalue="70"/>
                            <field name="nas-5gs.mm.eia3" showname="...1 .... = 128-EIA3: Supported" size="1" pos="112" show="True" value="1" unmaskedvalue="70"/>
                            <field name="nas-5gs.mm.eia4" showname=".... 0... = EIA4: Not supported" size="1" pos="112" show="False" value="0" unmaskedvalue="70"/>
                            <field name="nas-5gs.mm.eia5" showname=".... .0.. = EIA5: Not supported" size="1" pos="112" show="False" value="0" unmaskedvalue="70"/>
                            <field name="nas-5gs.mm.eia6" showname=".... ..0. = EIA6: Not supported" size="1" pos="112" show="False" value="0" unmaskedvalue="70"/>
                            <field name="nas-5gs.mm.eia7" showname=".... ...0 = EIA7: Not supported" size="1" pos="112" show="False" value="0" unmaskedvalue="70"/>
                          </field>
                          <field name="" show="NAS message container" size="67" pos="113" value="7100405bcb7d22dd2f06aa1bf1e2d462803cc0a79281309b985caf98451e138b260138fffdfae5976ef75bd2fbd09074319e5814531fa1916202b1248172fd9b004998">
                            <field name="nas-5gs.mm.elem_id" showname="Element ID: 0x71" size="1" pos="113" show="0x71" value="71"/>
                            <field name="gsm_a.len" showname="Length: 64" size="2" pos="114" show="64" value="0040"/>
                            <field name="" show="Encrypted data" size="64" pos="116" value="5bcb7d22dd2f06aa1bf1e2d462803cc0a79281309b985caf98451e138b260138fffdfae5976ef75bd2fbd09074319e5814531fa1916202b1248172fd9b004998"/>
                          </field>
                        </field>
                      </proto>
                    </field>
                  </field>
                </field>
              </field>
              <field name="" show="Item 2: id-UserLocationInformation" size="19" pos="180" value="0079000f4002f810400944002002f810000765">
                <field name="ngap.ProtocolIE_Field_element" showname="ProtocolIE-Field" size="19" pos="180" show="" value="">
                  <field name="ngap.id" showname="id: id-UserLocationInformation (121)" size="2" pos="180" show="121" value="0079"/>
                  <field name="per.enum_index" showname="Enumerated Index: 0" hide="yes" size="1" pos="182" show="0" value="00"/>
                  <field name="ngap.criticality" showname="criticality: reject (0)" size="1" pos="182" show="0" value="00"/>
                  <field name="per.open_type_length" showname="Open Type Length: 15" hide="yes" size="1" pos="183" show="15" value="0f"/>
                  <field name="ngap.value_element" showname="value" size="15" pos="184" show="" value="">
                    <field name="per.choice_index" showname="Choice Index: 1" hide="yes" size="1" pos="184" show="1" value="40"/>
                    <field name="ngap.UserLocationInformation" showname="UserLocationInformation: userLocationInformationNR (1)" size="15" pos="184" show="1" value="4002f810400944002002f810000765">
                      <field name="ngap.userLocationInformationNR_element" showname="userLocationInformationNR" size="15" pos="184" show="" value="">
                        <field name="per.extension_bit" showname="..0. .... Extension Bit: False" hide="yes" size="1" pos="184" show="False" value="0" unmaskedvalue="40"/>
                        <field name="per.optional_field_bit" showname="...0 .... Optional Field Bit: False (timeStamp is NOT present)" hide="yes" size="1" pos="184" show="False" value="0" unmaskedvalue="40"/>
                        <field name="per.optional_field_bit" showname=".... 0... Optional Field Bit: False (iE-Extensions is NOT present)" hide="yes" size="1" pos="184" show="False" value="0" unmaskedvalue="40"/>
                        <field name="ngap.nR_CGI_element" showname="nR-CGI" size="8" pos="184" show="" value="">
                          <field name="per.extension_bit" showname=".... .0.. Extension Bit: False" hide="yes" size="1" pos="184" show="False" value="0" unmaskedvalue="40"/>
                          <field name="per.optional_field_bit" showname=".... ..0. Optional Field Bit: False (iE-Extensions is NOT present)" hide="yes" size="1" pos="184" show="False" value="0" unmaskedvalue="40"/>
                          <field name="ngap.pLMNIdentity" showname="pLMNIdentity: 02f810" size="3" pos="185" show="02:f8:10" value="02f810">
                            <field name="e212.nrcgi.mcc" showname="Mobile Country Code (MCC): France (208)" size="2" pos="185" show="208" value="02f8"/>
                            <field name="e212.nrcgi.mnc" showname="Mobile Network Code (MNC): Orange (01)" size="2" pos="186" show="01" value="f810"/>
                          </field>
                          <field name="ngap.NRCellIdentity" showname="0100 0000 0000 1001 0100 0100 0000 0000 0010 .... = nRCellIdentity: 0x400944002" size="5" pos="184" show="0x0000000400944002" value="400944002" unmaskedvalue="4009440020"/>
                        </field>
                        <field name="ngap.tAI_element" showname="tAI" size="7" pos="192" show="" value="">
                          <field name="per.extension_bit" showname=".... 0... Extension Bit: False" hide="yes" size="1" pos="192" show="False" value="0" unmaskedvalue="20"/>
                          <field name="per.optional_field_bit" showname=".... .0.. Optional Field Bit: False (iE-Extensions is NOT present)" hide="yes" size="1" pos="192" show="False" value="0" unmaskedvalue="20"/>
                          <field name="ngap.pLMNIdentity" showname="pLMNIdentity: 02f810" size="3" pos="193" show="02:f8:10" value="02f810">
                            <field name="e212.5gstai.mcc" showname="Mobile Country Code (MCC): France (208)" size="2" pos="193" show="208" value="02f8"/>
                            <field name="e212.5gstai.mnc" showname="Mobile Network Code (MNC): Orange (01)" size="2" pos="194" show="01" value="f810"/>
                          </field>
                          <field name="ngap.tAC" showname="tAC: 1893 (0x000765)" size="3" pos="196" show="1893" value="000765"/>
                        </field>
                      </field>
                    </field>
                  </field>
                </field>
              </field>
              <field name="" show="Item 3: id-RRCEstablishmentCause" size="5" pos="199" value="005a400118">
                <field name="ngap.ProtocolIE_Field_element" showname="ProtocolIE-Field" size="5" pos="199" show="" value="">
                  <field name="ngap.id" showname="id: id-RRCEstablishmentCause (90)" size="2" pos="199" show="90" value="005a"/>
                  <field name="per.enum_index" showname="Enumerated Index: 1" hide="yes" size="1" pos="201" show="1" value="40"/>
                  <field name="ngap.criticality" showname="criticality: ignore (1)" size="1" pos="201" show="1" value="40"/>
                  <field name="per.open_type_length" showname="Open Type Length: 1" hide="yes" size="1" pos="202" show="1" value="01"/>
                  <field name="ngap.value_element" showname="value" size="1" pos="203" show="" value="">
                    <field name="per.extension_present_bit" showname="0... .... Extension Present Bit: False" hide="yes" size="1" pos="203" show="False" value="0" unmaskedvalue="18"/>
                    <field name="per.enum_index" showname="Enumerated Index: 3" hide="yes" size="1" pos="203" show="3" value="18"/>
                    <field name="ngap.RRCEstablishmentCause" showname="RRCEstablishmentCause: mo-Signalling (3)" size="1" pos="203" show="3" value="18"/>
                  </field>
                </field>
              </field>
              <field name="" show="Item 4: id-FiveG-S-TMSI" size="11" pos="204" value="001a00072e2800c000158d">
                <field name="ngap.ProtocolIE_Field_element" showname="ProtocolIE-Field" size="11" pos="204" show="" value="">
                  <field name="ngap.id" showname="id: id-FiveG-S-TMSI (26)" size="2" pos="204" show="26" value="001a"/>
                  <field name="per.enum_index" showname="Enumerated Index: 0" hide="yes" size="1" pos="206" show="0" value="00"/>
                  <field name="ngap.criticality" showname="criticality: reject (0)" size="1" pos="206" show="0" value="00"/>
                  <field name="per.open_type_length" showname="Open Type Length: 7" hide="yes" size="1" pos="207" show="7" value="07"/>
                  <field name="ngap.value_element" showname="value" size="7" pos="208" show="" value="">
                    <field name="ngap.FiveG_S_TMSI_element" showname="FiveG-S-TMSI" size="7" pos="208" show="" value="">
                      <field name="per.extension_bit" showname="0... .... Extension Bit: False" hide="yes" size="1" pos="208" show="False" value="0" unmaskedvalue="2e"/>
                      <field name="per.optional_field_bit" showname=".0.. .... Optional Field Bit: False (iE-Extensions is NOT present)" hide="yes" size="1" pos="208" show="False" value="0" unmaskedvalue="2e"/>
                      <field name="ngap.aMFSetID" showname="aMFSetID: b880 [bit length 10, 6 LSB pad bits, 1011 1000  10.. .... decimal value 738]" size="2" pos="208" show="b8:80" value="b880"/>
                      <field name="ngap.aMFPointer" showname="aMFPointer: 80 [bit length 6, 2 LSB pad bits, 1000 00.. decimal value 32]" size="1" pos="208" show="80" value="80"/>
                      <field name="ngap.fiveG_TMSI" showname="fiveG-TMSI: 3221230989 (0xc000158d)" size="4" pos="211" show="3221230989" value="c000158d"/>
                      <field name="3gpp.tmsi" showname="TMSI/P-TMSI/M-TMSI/5G-TMSI: 774373568 (0x2e2800c0)" hide="yes" size="4" pos="208" show="774373568" value="2e2800c0"/>
                    </field>
                  </field>
                </field>
              </field>
            </field>
          </field>
        </field>
      </field>
    </field>
  </proto>
</packet>

<packet>
  <proto name="geninfo" pos="0" showname="General information" size="141">
    <field name="num" pos="0" show="3" showname="Number" value="3" size="141"/>
    <field name="len" pos="0" show="141" showname="Frame Length" value="8d" size="141"/>
    <field name="caplen" pos="0" show="141" showname="Captured Length" value="8d" size="141"/>
    <field name="timestamp" pos="0" show="Oct 10, 2024 16:50:45.966703478 CEST" showname="Captured Time" value="1728571845.966703478" size="141"/>
  </proto>
  <proto name="frame" showname="Frame 3: 141 bytes on wire (1128 bits), 141 bytes captured (1128 bits)" size="141" pos="0">
    <field name="frame.encap_type" showname="Encapsulation type: Ethernet (1)" size="0" pos="0" show="1"/>
    <field name="frame.time" showname="Arrival Time: Oct 10, 2024 16:50:45.966703478 CEST" size="0" pos="0" show="Oct 10, 2024 16:50:45.966703478 CEST"/>
    <field name="frame.time_utc" showname="UTC Arrival Time: Oct 10, 2024 14:50:45.966703478 UTC" size="0" pos="0" show="Oct 10, 2024 14:50:45.966703478 UTC"/>
    <field name="frame.time_epoch" showname="Epoch Arrival Time: 1728571845.966703478" size="0" pos="0" show="1728571845.966703478"/>
    <field name="frame.offset_shift" showname="Time shift for this packet: 0.000000000 seconds" size="0" pos="0" show="0.000000000"/>
    <field name="frame.time_delta" showname="Time delta from previous captured frame: 0.119137579 seconds" size="0" pos="0" show="0.119137579"/>
    <field name="frame.time_delta_displayed" showname="Time delta from previous displayed frame: 0.119137579 seconds" size="0" pos="0" show="0.119137579"/>
    <field name="frame.time_relative" showname="Time since reference or first frame: 1.277061569 seconds" size="0" pos="0" show="1.277061569"/>
    <field name="frame.number" showname="Frame Number: 3" size="0" pos="0" show="3"/>
    <field name="frame.len" showname="Frame Length: 141 bytes (1128 bits)" size="0" pos="0" show="141"/>
    <field name="frame.cap_len" showname="Capture Length: 141 bytes (1128 bits)" size="0" pos="0" show="141"/>
    <field name="frame.marked" showname="Frame is marked: False" size="0" pos="0" show="False"/>
    <field name="frame.ignored" showname="Frame is ignored: False" size="0" pos="0" show="False"/>
    <field name="frame.protocols" showname="Protocols in frame: eth:ethertype:ip:sctp:ngap:ngap:nas-5gs" size="0" pos="0" show="eth:ethertype:ip:sctp:ngap:ngap:nas-5gs"/>
  </proto>
  <proto name="eth" showname="Ethernet II, Src: 00:00:00_00:00:00 (00:00:00:00:00:00), Dst: 00:00:00_00:00:00 (00:00:00:00:00:00)" size="14" pos="0">
    <field name="eth.dst" showname="Destination: 00:00:00_00:00:00 (00:00:00:00:00:00)" size="6" pos="0" show="00:00:00:00:00:00" value="000000000000">
      <field name="eth.dst_resolved" showname="Destination (resolved): 00:00:00_00:00:00" hide="yes" size="6" pos="0" show="00:00:00_00:00:00" value="000000000000"/>
      <field name="eth.dst.oui" showname="Destination OUI: 00:00:00 (Officially Xerox, but 0:0:0:0:0:0 is more common)" hide="yes" size="3" pos="0" show="0" value="000000"/>
      <field name="eth.dst.oui_resolved" showname="Destination OUI (resolved): Officially Xerox, but 0:0:0:0:0:0 is more common" hide="yes" size="6" pos="0" show="Officially Xerox, but 0:0:0:0:0:0 is more common" value="000000000000"/>
      <field name="eth.dst.lg" showname=".... ..0. .... .... .... .... = LG bit: Globally unique address (factory default)" size="3" pos="0" show="False" value="0" unmaskedvalue="000000"/>
      <field name="eth.dst.ig" showname=".... ...0 .... .... .... .... = IG bit: Individual address (unicast)" size="3" pos="0" show="False" value="0" unmaskedvalue="000000"/>
      <field name="eth.addr" showname="Address: 00:00:00_00:00:00 (00:00:00:00:00:00)" hide="yes" size="6" pos="0" show="00:00:00:00:00:00" value="000000000000"/>
      <field name="eth.addr_resolved" showname="Address (resolved): 00:00:00_00:00:00" hide="yes" size="6" pos="0" show="00:00:00_00:00:00" value="000000000000"/>
      <field name="eth.addr.oui" showname="Address OUI: 00:00:00 (Officially Xerox, but 0:0:0:0:0:0 is more common)" hide="yes" size="3" pos="0" show="0" value="000000"/>
      <field name="eth.addr.oui_resolved" showname="Address OUI (resolved): Officially Xerox, but 0:0:0:0:0:0 is more common" hide="yes" size="6" pos="0" show="Officially Xerox, but 0:0:0:0:0:0 is more common" value="000000000000"/>
      <field name="eth.lg" showname=".... ..0. .... .... .... .... = LG bit: Globally unique address (factory default)" hide="yes" size="3" pos="0" show="False" value="0" unmaskedvalue="000000"/>
      <field name="eth.ig" showname=".... ...0 .... .... .... .... = IG bit: Individual address (unicast)" hide="yes" size="3" pos="0" show="False" value="0" unmaskedvalue="000000"/>
    </field>
    <field name="eth.src" showname="Source: 00:00:00_00:00:00 (00:00:00:00:00:00)" size="6" pos="6" show="00:00:00:00:00:00" value="000000000000">
      <field name="eth.src_resolved" showname="Source (resolved): 00:00:00_00:00:00" hide="yes" size="6" pos="6" show="00:00:00_00:00:00" value="000000000000"/>
      <field name="eth.src.oui" showname="Source OUI: 00:00:00 (Officially Xerox, but 0:0:0:0:0:0 is more common)" hide="yes" size="3" pos="6" show="0" value="000000"/>
      <field name="eth.src.oui_resolved" showname="Source OUI (resolved): Officially Xerox, but 0:0:0:0:0:0 is more common" hide="yes" size="6" pos="6" show="Officially Xerox, but 0:0:0:0:0:0 is more common" value="000000000000"/>
      <field name="eth.src.lg" showname=".... ..0. .... .... .... .... = LG bit: Globally unique address (factory default)" size="3" pos="6" show="False" value="0" unmaskedvalue="000000"/>
      <field name="eth.src.ig" showname=".... ...0 .... .... .... .... = IG bit: Individual address (unicast)" size="3" pos="6" show="False" value="0" unmaskedvalue="000000"/>
      <field name="eth.addr" showname="Address: 00:00:00_00:00:00 (00:00:00:00:00:00)" hide="yes" size="6" pos="6" show="00:00:00:00:00:00" value="000000000000"/>
      <field name="eth.addr_resolved" showname="Address (resolved): 00:00:00_00:00:00" hide="yes" size="6" pos="6" show="00:00:00_00:00:00" value="000000000000"/>
      <field name="eth.addr.oui" showname="Address OUI: 00:00:00 (Officially Xerox, but 0:0:0:0:0:0 is more common)" hide="yes" size="3" pos="6" show="0" value="000000"/>
      <field name="eth.addr.oui_resolved" showname="Address OUI (resolved): Officially Xerox, but 0:0:0:0:0:0 is more common" hide="yes" size="6" pos="6" show="Officially Xerox, but 0:0:0:0:0:0 is more common" value="000000000000"/>
      <field name="eth.lg" showname=".... ..0. .... .... .... .... = LG bit: Globally unique address (factory default)" hide="yes" size="3" pos="6" show="False" value="0" unmaskedvalue="000000"/>
      <field name="eth.ig" showname=".... ...0 .... .... .... .... = IG bit: Individual address (unicast)" hide="yes" size="3" pos="6" show="False" value="0" unmaskedvalue="000000"/>
    </field>
    <field name="eth.type" showname="Type: IPv4 (0x0800)" size="2" pos="12" show="0x0800" value="0800"/>
    <field name="eth.stream" showname="Stream index: 0" size="0" pos="0" show="0"/>
  </proto>
  <proto name="ip" showname="Internet Protocol Version 4, Src: 10.105.43.26, Dst: 10.71.248.125" size="20" pos="14">
    <field name="ip.version" showname="0100 .... = Version: 4" size="1" pos="14" show="4" value="45"/>
    <field name="ip.hdr_len" showname=".... 0101 = Header Length: 20 bytes (5)" size="1" pos="14" show="20" value="45"/>
    <field name="ip.dsfield" showname="Differentiated Services Field: 0xb8 (DSCP: EF PHB, ECN: Not-ECT)" size="1" pos="15" show="0xb8" value="b8">
      <field name="ip.dsfield.dscp" showname="1011 10.. = Differentiated Services Codepoint: Expedited Forwarding (46)" size="1" pos="15" show="46" value="2E" unmaskedvalue="b8"/>
      <field name="ip.dsfield.ecn" showname=".... ..00 = Explicit Congestion Notification: Not ECN-Capable Transport (0)" size="1" pos="15" show="0" value="0" unmaskedvalue="b8"/>
    </field>
    <field name="ip.len" showname="Total Length: 127" size="2" pos="16" show="127" value="007f"/>
    <field name="ip.id" showname="Identification: 0x22cd (8909)" size="2" pos="18" show="0x22cd" value="22cd"/>
    <field name="ip.flags" showname="000. .... = Flags: 0x0" size="1" pos="20" show="0x00" value="0" unmaskedvalue="00">
      <field name="ip.flags.rb" showname="0... .... = Reserved bit: Not set" size="1" pos="20" show="False" value="0" unmaskedvalue="00"/>
      <field name="ip.flags.df" showname=".0.. .... = Don&#x27;t fragment: Not set" size="1" pos="20" show="False" value="0" unmaskedvalue="00"/>
      <field name="ip.flags.mf" showname="..0. .... = More fragments: Not set" size="1" pos="20" show="False" value="0" unmaskedvalue="00"/>
    </field>
    <field name="ip.frag_offset" showname="...0 0000 0000 0000 = Fragment Offset: 0" size="2" pos="20" show="0" value="0" unmaskedvalue="0000"/>
    <field name="ip.ttl" showname="Time to Live: 254" size="1" pos="22" show="254" value="fe"/>
    <field name="ip.proto" showname="Protocol: SCTP (132)" size="1" pos="23" show="132" value="84"/>
    <field name="ip.checksum" showname="Header Checksum: 0x602e [validation disabled]" size="2" pos="24" show="0x602e" value="602e"/>
    <field name="ip.checksum.status" showname="Header checksum status: Unverified" size="0" pos="24" show="2"/>
    <field name="ip.src" showname="Source Address: 10.105.43.26" size="4" pos="26" show="10.105.43.26" value="0a692b1a"/>
    <field name="ip.addr" showname="Source or Destination Address: 10.105.43.26" hide="yes" size="4" pos="26" show="10.105.43.26" value="0a692b1a"/>
    <field name="ip.src_host" showname="Source Host: 10.105.43.26" hide="yes" size="4" pos="26" show="10.105.43.26" value="0a692b1a"/>
    <field name="ip.host" showname="Source or Destination Host: 10.105.43.26" hide="yes" size="4" pos="26" show="10.105.43.26" value="0a692b1a"/>
    <field name="ip.dst" showname="Destination Address: 10.71.248.125" size="4" pos="30" show="10.71.248.125" value="0a47f87d"/>
    <field name="ip.addr" showname="Source or Destination Address: 10.71.248.125" hide="yes" size="4" pos="30" show="10.71.248.125" value="0a47f87d"/>
    <field name="ip.dst_host" showname="Destination Host: 10.71.248.125" hide="yes" size="4" pos="30" show="10.71.248.125" value="0a47f87d"/>
    <field name="ip.host" showname="Source or Destination Host: 10.71.248.125" hide="yes" size="4" pos="30" show="10.71.248.125" value="0a47f87d"/>
    <field name="ip.stream" showname="Stream index: 0" size="0" pos="34" show="0"/>
  </proto>
  <proto name="sctp" showname="Stream Control Transmission Protocol, Src Port: 38412 (38412), Dst Port: 38412 (38412)" size="28" pos="34">
    <field name="sctp.srcport" showname="Source port: 38412" size="2" pos="34" show="38412" value="960c"/>
    <field name="sctp.dstport" showname="Destination port: 38412" size="2" pos="36" show="38412" value="960c"/>
    <field name="sctp.verification_tag" showname="Verification tag: 0xd1d212df" size="4" pos="38" show="0xd1d212df" value="d1d212df"/>
    <field name="sctp.assoc_index" showname="Association index: disabled (enable in preferences)" size="0" pos="34" show="65535"/>
    <field name="sctp.port" showname="Port: 38412" hide="yes" size="2" pos="34" show="38412" value="960c"/>
    <field name="sctp.port" showname="Port: 38412" hide="yes" size="2" pos="36" show="38412" value="960c"/>
    <field name="sctp.checksum" showname="Checksum: 0xd86c3f67 [unverified]" size="4" pos="42" show="0xd86c3f67" value="d86c3f67"/>
    <field name="sctp.checksum.status" showname="Checksum Status: Unverified" size="0" pos="42" show="2"/>
    <field name="sctp.chunk" showname="DATA chunk (ordered, complete segment, TSN: 1, SID: 1, SSN: 2189, PPID: 60, payload length: 79 bytes)" size="16" pos="46" show="" value="">
      <field name="sctp.chunk_type" showname="Chunk type: DATA (0)" size="1" pos="46" show="0" value="00">
        <field name="sctp.chunk_bit_1" showname="0... .... = Bit: Stop processing of the packet" size="1" pos="46" show="False" value="0" unmaskedvalue="00"/>
        <field name="sctp.chunk_bit_2" showname=".0.. .... = Bit: Do not report" size="1" pos="46" show="False" value="0" unmaskedvalue="00"/>
      </field>
      <field name="sctp.chunk_flags" showname="Chunk flags: 0x03" size="1" pos="47" show="0x03" value="03">
        <field name="sctp.data_i_bit" showname=".... 0... = I-Bit: Possibly delay SACK" size="1" pos="47" show="False" value="0" unmaskedvalue="03"/>
        <field name="sctp.data_u_bit" showname=".... .0.. = U-Bit: Ordered delivery" size="1" pos="47" show="False" value="0" unmaskedvalue="03"/>
        <field name="sctp.data_b_bit" showname=".... ..1. = B-Bit: First segment" size="1" pos="47" show="True" value="1" unmaskedvalue="03"/>
        <field name="sctp.data_e_bit" showname=".... ...1 = E-Bit: Last segment" size="1" pos="47" show="True" value="1" unmaskedvalue="03"/>
      </field>
      <field name="sctp.chunk_length" showname="Chunk length: 95" size="2" pos="48" show="95" value="005f"/>
      <field name="sctp.data_tsn" showname="Transmission sequence number (relative): 1" size="4" pos="50" show="1" value="d4728130"/>
      <field name="sctp.data_tsn_raw" showname="Transmission sequence number (absolute): 3564273968" size="4" pos="50" show="3564273968" value="d4728130"/>
      <field name="sctp.data_sid" showname="Stream identifier: 0x0001" size="2" pos="54" show="0x0001" value="0001"/>
      <field name="sctp.data_ssn" showname="Stream sequence number: 2189" size="2" pos="56" show="2189" value="088d"/>
      <field name="sctp.data_payload_proto_id" showname="Payload protocol identifier: NGAP (60)" size="4" pos="58" show="60" value="0000003c"/>
    </field>
  </proto>
  <proto name="ngap" showname="NG Application Protocol (DownlinkNASTransport)" size="79" pos="62">
    <field name="per.extension_bit" showname="0... .... Extension Bit: False" hide="yes" size="1" pos="62" show="False" value="0" unmaskedvalue="00"/>
    <field name="per.choice_index" showname="Choice Index: 0" hide="yes" size="1" pos="62" show="0" value="00"/>
    <field name="ngap.NGAP_PDU" showname="NGAP-PDU: initiatingMessage (0)" size="79" pos="62" show="0" value="0004404b000003000a00068020418661b7005500048003c51e00260032317e0202d662f00e7e00560202000021eb0ac122087ce3ec3ba68752f1d1070b20100bfa6d8e8c1180002868adb952988c0c">
      <field name="ngap.initiatingMessage_element" showname="initiatingMessage" size="79" pos="62" show="" value="">
        <field name="ngap.procedureCode" showname="procedureCode: id-DownlinkNASTransport (4)" size="1" pos="63" show="4" value="04"/>
        <field name="per.enum_index" showname="Enumerated Index: 1" hide="yes" size="1" pos="64" show="1" value="40"/>
        <field name="ngap.criticality" showname="criticality: ignore (1)" size="1" pos="64" show="1" value="40"/>
        <field name="per.open_type_length" showname="Open Type Length: 75" hide="yes" size="1" pos="65" show="75" value="4b"/>
        <field name="ngap.value_element" showname="value" size="75" pos="66" show="" value="">
          <field name="ngap.DownlinkNASTransport_element" showname="DownlinkNASTransport" size="75" pos="66" show="" value="">
            <field name="per.extension_bit" showname="0... .... Extension Bit: False" hide="yes" size="1" pos="66" show="False" value="0" unmaskedvalue="00"/>
            <field name="per.sequence_of_length" showname="Sequence-Of Length: 3" hide="yes" size="2" pos="67" show="3" value="0003"/>
            <field name="ngap.protocolIEs" showname="protocolIEs: 3 items" size="72" pos="69" show="3" value="000a00068020418661b7005500048003c51e00260032317e0202d662f00e7e00560202000021eb0ac122087ce3ec3ba68752f1d1070b20100bfa6d8e8c1180002868adb952988c0c">
              <field name="" show="Item 0: id-AMF-UE-NGAP-ID" size="10" pos="69" value="000a00068020418661b7">
                <field name="ngap.ProtocolIE_Field_element" showname="ProtocolIE-Field" size="10" pos="69" show="" value="">
                  <field name="ngap.id" showname="id: id-AMF-UE-NGAP-ID (10)" size="2" pos="69" show="10" value="000a"/>
                  <field name="per.enum_index" showname="Enumerated Index: 0" hide="yes" size="1" pos="71" show="0" value="00"/>
                  <field name="ngap.criticality" showname="criticality: reject (0)" size="1" pos="71" show="0" value="00"/>
                  <field name="per.open_type_length" showname="Open Type Length: 6" hide="yes" size="1" pos="72" show="6" value="06"/>
                  <field name="ngap.value_element" showname="value" size="6" pos="73" show="" value="">
                    <field name="ngap.AMF_UE_NGAP_ID" showname="AMF-UE-NGAP-ID: 138538279351" size="6" pos="73" show="138538279351" value="8020418661b7"/>
                  </field>
                </field>
              </field>
              <field name="" show="Item 1: id-RAN-UE-NGAP-ID" size="8" pos="79" value="005500048003c51e">
                <field name="ngap.ProtocolIE_Field_element" showname="ProtocolIE-Field" size="8" pos="79" show="" value="">
                  <field name="ngap.id" showname="id: id-RAN-UE-NGAP-ID (85)" size="2" pos="79" show="85" value="0055"/>
                  <field name="per.enum_index" showname="Enumerated Index: 0" hide="yes" size="1" pos="81" show="0" value="00"/>
                  <field name="ngap.criticality" showname="criticality: reject (0)" size="1" pos="81" show="0" value="00"/>
                  <field name="per.open_type_length" showname="Open Type Length: 4" hide="yes" size="1" pos="82" show="4" value="04"/>
                  <field name="ngap.value_element" showname="value" size="4" pos="83" show="" value="">
                    <field name="ngap.RAN_UE_NGAP_ID" showname="RAN-UE-NGAP-ID: 247070" size="4" pos="83" show="247070" value="8003c51e"/>
                  </field>
                </field>
              </field>
              <field name="" show="Item 2: id-NAS-PDU" size="54" pos="87" value="00260032317e0202d662f00e7e00560202000021eb0ac122087ce3ec3ba68752f1d1070b20100bfa6d8e8c1180002868adb952988c0c">
                <field name="ngap.ProtocolIE_Field_element" showname="ProtocolIE-Field" size="54" pos="87" show="" value="">
                  <field name="ngap.id" showname="id: id-NAS-PDU (38)" size="2" pos="87" show="38" value="0026"/>
                  <field name="per.enum_index" showname="Enumerated Index: 0" hide="yes" size="1" pos="89" show="0" value="00"/>
                  <field name="ngap.criticality" showname="criticality: reject (0)" size="1" pos="89" show="0" value="00"/>
                  <field name="per.open_type_length" showname="Open Type Length: 50" hide="yes" size="1" pos="90" show="50" value="32"/>
                  <field name="ngap.value_element" showname="value" size="50" pos="91" show="" value="">
                    <field name="per.octet_string_length" showname="Octet String Length: 49" hide="yes" size="1" pos="91" show="49" value="31"/>
                    <field name="ngap.NAS_PDU" showname="NAS-PDU: 7e0202d662f00e7e00560202000021eb0ac122087ce3ec3ba68752f1d1070b20100bfa6d8e8c1180002868adb952988c0c" size="49" pos="92" show="7e:02:02:d6:62:f0:0e:7e:00:56:02:02:00:00:21:eb:0a:c1:22:08:7c:e3:ec:3b:a6:87:52:f1:d1:07:0b:20:10:0b:fa:6d:8e:8c:11:80:00:28:68:ad:b9:52:98:8c:0c" value="7e0202d662f00e7e00560202000021eb0ac122087ce3ec3ba68752f1d1070b20100bfa6d8e8c1180002868adb952988c0c">
                      <proto name="nas-5gs" showname="Non-Access-Stratum 5GS (NAS)PDU" size="49" pos="92">
                        <field name="" show="Security protected NAS 5GS message" size="7" pos="92" value="7e0202d662f00e">
                          <field name="nas-5gs.epd" showname="Extended protocol discriminator: 5G mobility management messages (126)" size="1" pos="92" show="126" value="7e"/>
                          <field name="nas-5gs.spare_half_octet" showname="0000 .... = Spare Half Octet: 0" size="1" pos="93" show="0" value="0" unmaskedvalue="02"/>
                          <field name="nas-5gs.security_header_type" showname=".... 0010 = Security header type: Integrity protected and ciphered (2)" size="1" pos="93" show="2" value="2" unmaskedvalue="02"/>
                          <field name="nas-5gs.msg_auth_code" showname="Message authentication code: 0x02d662f0" size="4" pos="94" show="0x02d662f0" value="02d662f0"/>
                          <field name="nas-5gs.seq_no" showname="Sequence number: 14" size="1" pos="98" show="14" value="0e"/>
                        </field>
                        <field name="" show="Encrypted data" size="42" pos="99" value="7e00560202000021eb0ac122087ce3ec3ba68752f1d1070b20100bfa6d8e8c1180002868adb952988c0c"/>
                      </proto>
                    </field>
                  </field>
                </field>
              </field>
            </field>
          </field>
        </field>
      </field>
    </field>
  </proto>
</packet>

<packet>
  <proto name="geninfo" pos="0" showname="General information" size="139">
    <field name="num" pos="0" show="4" showname="Number" value="4" size="139"/>
    <field name="len" pos="0" show="139" showname="Frame Length" value="8b" size="139"/>
    <field name="caplen" pos="0" show="139" showname="Captured Length" value="8b" size="139"/>
    <field name="timestamp" pos="0" show="Oct 10, 2024 16:50:46.053157968 CEST" showname="Captured Time" value="1728571846.053157968" size="139"/>
  </proto>
  <proto name="frame" showname="Frame 4: 139 bytes on wire (1112 bits), 139 bytes captured (1112 bits)" size="139" pos="0">
    <field name="frame.encap_type" showname="Encapsulation type: Ethernet (1)" size="0" pos="0" show="1"/>
    <field name="frame.time" showname="Arrival Time: Oct 10, 2024 16:50:46.053157968 CEST" size="0" pos="0" show="Oct 10, 2024 16:50:46.053157968 CEST"/>
    <field name="frame.time_utc" showname="UTC Arrival Time: Oct 10, 2024 14:50:46.053157968 UTC" size="0" pos="0" show="Oct 10, 2024 14:50:46.053157968 UTC"/>
    <field name="frame.time_epoch" showname="Epoch Arrival Time: 1728571846.053157968" size="0" pos="0" show="1728571846.053157968"/>
    <field name="frame.offset_shift" showname="Time shift for this packet: 0.000000000 seconds" size="0" pos="0" show="0.000000000"/>
    <field name="frame.time_delta" showname="Time delta from previous captured frame: 0.086454490 seconds" size="0" pos="0" show="0.086454490"/>
    <field name="frame.time_delta_displayed" showname="Time delta from previous displayed frame: 0.086454490 seconds" size="0" pos="0" show="0.086454490"/>
    <field name="frame.time_relative" showname="Time since reference or first frame: 1.363516059 seconds" size="0" pos="0" show="1.363516059"/>
    <field name="frame.number" showname="Frame Number: 4" size="0" pos="0" show="4"/>
    <field name="frame.len" showname="Frame Length: 139 bytes (1112 bits)" size="0" pos="0" show="139"/>
    <field name="frame.cap_len" showname="Capture Length: 139 bytes (1112 bits)" size="0" pos="0" show="139"/>
    <field name="frame.marked" showname="Frame is marked: False" size="0" pos="0" show="False"/>
    <field name="frame.ignored" showname="Frame is ignored: False" size="0" pos="0" show="False"/>
    <field name="frame.protocols" showname="Protocols in frame: eth:ethertype:ip:sctp:ngap:ngap:nas-5gs" size="0" pos="0" show="eth:ethertype:ip:sctp:ngap:ngap:nas-5gs"/>
  </proto>
  <proto name="eth" showname="Ethernet II, Src: 00:00:00_00:00:00 (00:00:00:00:00:00), Dst: 00:00:00_00:00:00 (00:00:00:00:00:00)" size="14" pos="0">
    <field name="eth.dst" showname="Destination: 00:00:00_00:00:00 (00:00:00:00:00:00)" size="6" pos="0" show="00:00:00:00:00:00" value="000000000000">
      <field name="eth.dst_resolved" showname="Destination (resolved): 00:00:00_00:00:00" hide="yes" size="6" pos="0" show="00:00:00_00:00:00" value="000000000000"/>
      <field name="eth.dst.oui" showname="Destination OUI: 00:00:00 (Officially Xerox, but 0:0:0:0:0:0 is more common)" hide="yes" size="3" pos="0" show="0" value="000000"/>
      <field name="eth.dst.oui_resolved" showname="Destination OUI (resolved): Officially Xerox, but 0:0:0:0:0:0 is more common" hide="yes" size="6" pos="0" show="Officially Xerox, but 0:0:0:0:0:0 is more common" value="000000000000"/>
      <field name="eth.dst.lg" showname=".... ..0. .... .... .... .... = LG bit: Globally unique address (factory default)" size="3" pos="0" show="False" value="0" unmaskedvalue="000000"/>
      <field name="eth.dst.ig" showname=".... ...0 .... .... .... .... = IG bit: Individual address (unicast)" size="3" pos="0" show="False" value="0" unmaskedvalue="000000"/>
      <field name="eth.addr" showname="Address: 00:00:00_00:00:00 (00:00:00:00:00:00)" hide="yes" size="6" pos="0" show="00:00:00:00:00:00" value="000000000000"/>
      <field name="eth.addr_resolved" showname="Address (resolved): 00:00:00_00:00:00" hide="yes" size="6" pos="0" show="00:00:00_00:00:00" value="000000000000"/>
      <field name="eth.addr.oui" showname="Address OUI: 00:00:00 (Officially Xerox, but 0:0:0:0:0:0 is more common)" hide="yes" size="3" pos="0" show="0" value="000000"/>
      <field name="eth.addr.oui_resolved" showname="Address OUI (resolved): Officially Xerox, but 0:0:0:0:0:0 is more common" hide="yes" size="6" pos="0" show="Officially Xerox, but 0:0:0:0:0:0 is more common" value="000000000000"/>
      <field name="eth.lg" showname=".... ..0. .... .... .... .... = LG bit: Globally unique address (factory default)" hide="yes" size="3" pos="0" show="False" value="0" unmaskedvalue="000000"/>
      <field name="eth.ig" showname=".... ...0 .... .... .... .... = IG bit: Individual address (unicast)" hide="yes" size="3" pos="0" show="False" value="0" unmaskedvalue="000000"/>
    </field>
    <field name="eth.src" showname="Source: 00:00:00_00:00:00 (00:00:00:00:00:00)" size="6" pos="6" show="00:00:00:00:00:00" value="000000000000">
      <field name="eth.src_resolved" showname="Source (resolved): 00:00:00_00:00:00" hide="yes" size="6" pos="6" show="00:00:00_00:00:00" value="000000000000"/>
      <field name="eth.src.oui" showname="Source OUI: 00:00:00 (Officially Xerox, but 0:0:0:0:0:0 is more common)" hide="yes" size="3" pos="6" show="0" value="000000"/>
      <field name="eth.src.oui_resolved" showname="Source OUI (resolved): Officially Xerox, but 0:0:0:0:0:0 is more common" hide="yes" size="6" pos="6" show="Officially Xerox, but 0:0:0:0:0:0 is more common" value="000000000000"/>
      <field name="eth.src.lg" showname=".... ..0. .... .... .... .... = LG bit: Globally unique address (factory default)" size="3" pos="6" show="False" value="0" unmaskedvalue="000000"/>
      <field name="eth.src.ig" showname=".... ...0 .... .... .... .... = IG bit: Individual address (unicast)" size="3" pos="6" show="False" value="0" unmaskedvalue="000000"/>
      <field name="eth.addr" showname="Address: 00:00:00_00:00:00 (00:00:00:00:00:00)" hide="yes" size="6" pos="6" show="00:00:00:00:00:00" value="000000000000"/>
      <field name="eth.addr_resolved" showname="Address (resolved): 00:00:00_00:00:00" hide="yes" size="6" pos="6" show="00:00:00_00:00:00" value="000000000000"/>
      <field name="eth.addr.oui" showname="Address OUI: 00:00:00 (Officially Xerox, but 0:0:0:0:0:0 is more common)" hide="yes" size="3" pos="6" show="0" value="000000"/>
      <field name="eth.addr.oui_resolved" showname="Address OUI (resolved): Officially Xerox, but 0:0:0:0:0:0 is more common" hide="yes" size="6" pos="6" show="Officially Xerox, but 0:0:0:0:0:0 is more common" value="000000000000"/>
      <field name="eth.lg" showname=".... ..0. .... .... .... .... = LG bit: Globally unique address (factory default)" hide="yes" size="3" pos="6" show="False" value="0" unmaskedvalue="000000"/>
      <field name="eth.ig" showname=".... ...0 .... .... .... .... = IG bit: Individual address (unicast)" hide="yes" size="3" pos="6" show="False" value="0" unmaskedvalue="000000"/>
    </field>
    <field name="eth.type" showname="Type: IPv4 (0x0800)" size="2" pos="12" show="0x0800" value="0800"/>
    <field name="eth.stream" showname="Stream index: 0" size="0" pos="0" show="0"/>
  </proto>
  <proto name="ip" showname="Internet Protocol Version 4, Src: 10.71.248.125, Dst: 10.105.43.26" size="20" pos="14">
    <field name="ip.version" showname="0100 .... = Version: 4" size="1" pos="14" show="4" value="45"/>
    <field name="ip.hdr_len" showname=".... 0101 = Header Length: 20 bytes (5)" size="1" pos="14" show="20" value="45"/>
    <field name="ip.dsfield" showname="Differentiated Services Field: 0xba (DSCP: EF PHB, ECN: ECT(0))" size="1" pos="15" show="0xba" value="ba">
      <field name="ip.dsfield.dscp" showname="1011 10.. = Differentiated Services Codepoint: Expedited Forwarding (46)" size="1" pos="15" show="46" value="2E" unmaskedvalue="ba"/>
      <field name="ip.dsfield.ecn" showname=".... ..10 = Explicit Congestion Notification: ECN-Capable Transport codepoint &#x27;10&#x27; (2)" size="1" pos="15" show="2" value="2" unmaskedvalue="ba"/>
    </field>
    <field name="ip.len" showname="Total Length: 125" size="2" pos="16" show="125" value="007d"/>
    <field name="ip.id" showname="Identification: 0x3feb (16363)" size="2" pos="18" show="0x3feb" value="3feb"/>
    <field name="ip.flags" showname="000. .... = Flags: 0x0" size="1" pos="20" show="0x00" value="0" unmaskedvalue="00">
      <field name="ip.flags.rb" showname="0... .... = Reserved bit: Not set" size="1" pos="20" show="False" value="0" unmaskedvalue="00"/>
      <field name="ip.flags.df" showname=".0.. .... = Don&#x27;t fragment: Not set" size="1" pos="20" show="False" value="0" unmaskedvalue="00"/>
      <field name="ip.flags.mf" showname="..0. .... = More fragments: Not set" size="1" pos="20" show="False" value="0" unmaskedvalue="00"/>
    </field>
    <field name="ip.frag_offset" showname="...0 0000 0000 0000 = Fragment Offset: 0" size="2" pos="20" show="0" value="0" unmaskedvalue="0000"/>
    <field name="ip.ttl" showname="Time to Live: 248" size="1" pos="22" show="248" value="f8"/>
    <field name="ip.proto" showname="Protocol: SCTP (132)" size="1" pos="23" show="132" value="84"/>
    <field name="ip.checksum" showname="Header Checksum: 0x4910 [validation disabled]" size="2" pos="24" show="0x4910" value="4910"/>
    <field name="ip.checksum.status" showname="Header checksum status: Unverified" size="0" pos="24" show="2"/>
    <field name="ip.src" showname="Source Address: 10.71.248.125" size="4" pos="26" show="10.71.248.125" value="0a47f87d"/>
    <field name="ip.addr" showname="Source or Destination Address: 10.71.248.125" hide="yes" size="4" pos="26" show="10.71.248.125" value="0a47f87d"/>
    <field name="ip.src_host" showname="Source Host: 10.71.248.125" hide="yes" size="4" pos="26" show="10.71.248.125" value="0a47f87d"/>
    <field name="ip.host" showname="Source or Destination Host: 10.71.248.125" hide="yes" size="4" pos="26" show="10.71.248.125" value="0a47f87d"/>
    <field name="ip.dst" showname="Destination Address: 10.105.43.26" size="4" pos="30" show="10.105.43.26" value="0a692b1a"/>
    <field name="ip.addr" showname="Source or Destination Address: 10.105.43.26" hide="yes" size="4" pos="30" show="10.105.43.26" value="0a692b1a"/>
    <field name="ip.dst_host" showname="Destination Host: 10.105.43.26" hide="yes" size="4" pos="30" show="10.105.43.26" value="0a692b1a"/>
    <field name="ip.host" showname="Source or Destination Host: 10.105.43.26" hide="yes" size="4" pos="30" show="10.105.43.26" value="0a692b1a"/>
    <field name="ip.stream" showname="Stream index: 0" size="0" pos="34" show="0"/>
  </proto>
  <proto name="sctp" showname="Stream Control Transmission Protocol, Src Port: 38412 (38412), Dst Port: 38412 (38412)" size="28" pos="34">
    <field name="sctp.srcport" showname="Source port: 38412" size="2" pos="34" show="38412" value="960c"/>
    <field name="sctp.dstport" showname="Destination port: 38412" size="2" pos="36" show="38412" value="960c"/>
    <field name="sctp.verification_tag" showname="Verification tag: 0xc2c62adc" size="4" pos="38" show="0xc2c62adc" value="c2c62adc"/>
    <field name="sctp.assoc_index" showname="Association index: disabled (enable in preferences)" size="0" pos="34" show="65535"/>
    <field name="sctp.port" showname="Port: 38412" hide="yes" size="2" pos="34" show="38412" value="960c"/>
    <field name="sctp.port" showname="Port: 38412" hide="yes" size="2" pos="36" show="38412" value="960c"/>
    <field name="sctp.checksum" showname="Checksum: 0x3ba615f8 [unverified]" size="4" pos="42" show="0x3ba615f8" value="3ba615f8"/>
    <field name="sctp.checksum.status" showname="Checksum Status: Unverified" size="0" pos="42" show="2"/>
    <field name="sctp.chunk" showname="DATA chunk (ordered, complete segment, TSN: 1, SID: 1, SSN: 3524, PPID: 60, payload length: 77 bytes)" size="16" pos="46" show="" value="">
      <field name="sctp.chunk_type" showname="Chunk type: DATA (0)" size="1" pos="46" show="0" value="00">
        <field name="sctp.chunk_bit_1" showname="0... .... = Bit: Stop processing of the packet" size="1" pos="46" show="False" value="0" unmaskedvalue="00"/>
        <field name="sctp.chunk_bit_2" showname=".0.. .... = Bit: Do not report" size="1" pos="46" show="False" value="0" unmaskedvalue="00"/>
      </field>
      <field name="sctp.chunk_flags" showname="Chunk flags: 0x03" size="1" pos="47" show="0x03" value="03">
        <field name="sctp.data_i_bit" showname=".... 0... = I-Bit: Possibly delay SACK" size="1" pos="47" show="False" value="0" unmaskedvalue="03"/>
        <field name="sctp.data_u_bit" showname=".... .0.. = U-Bit: Ordered delivery" size="1" pos="47" show="False" value="0" unmaskedvalue="03"/>
        <field name="sctp.data_b_bit" showname=".... ..1. = B-Bit: First segment" size="1" pos="47" show="True" value="1" unmaskedvalue="03"/>
        <field name="sctp.data_e_bit" showname=".... ...1 = E-Bit: Last segment" size="1" pos="47" show="True" value="1" unmaskedvalue="03"/>
      </field>
      <field name="sctp.chunk_length" showname="Chunk length: 93" size="2" pos="48" show="93" value="005d"/>
      <field name="sctp.data_tsn" showname="Transmission sequence number (relative): 1" size="4" pos="50" show="1" value="1a61decb"/>
      <field name="sctp.data_tsn_raw" showname="Transmission sequence number (absolute): 442621643" size="4" pos="50" show="442621643" value="1a61decb"/>
      <field name="sctp.data_sid" showname="Stream identifier: 0x0001" size="2" pos="54" show="0x0001" value="0001"/>
      <field name="sctp.data_ssn" showname="Stream sequence number: 3524" size="2" pos="56" show="3524" value="0dc4"/>
      <field name="sctp.data_payload_proto_id" showname="Payload protocol identifier: NGAP (60)" size="4" pos="58" show="60" value="0000003c"/>
    </field>
  </proto>
  <proto name="ngap" showname="NG Application Protocol (UplinkNASTransport)" size="77" pos="62">
    <field name="per.extension_bit" showname="0... .... Extension Bit: False" hide="yes" size="1" pos="62" show="False" value="0" unmaskedvalue="00"/>
    <field name="per.choice_index" showname="Choice Index: 0" hide="yes" size="1" pos="62" show="0" value="00"/>
    <field name="ngap.NGAP_PDU" showname="NGAP-PDU: initiatingMessage (0)" size="77" pos="62" show="0" value="002e4049000004000a00068020418661b7005500048003c51e0026001d1c7e02f5c381f90e7e00572d10c4b95c0a78be191af273f3b5fdf7a7360079400f4002f810400944002002f810000765">
      <field name="ngap.initiatingMessage_element" showname="initiatingMessage" size="77" pos="62" show="" value="">
        <field name="ngap.procedureCode" showname="procedureCode: id-UplinkNASTransport (46)" size="1" pos="63" show="46" value="2e"/>
        <field name="per.enum_index" showname="Enumerated Index: 1" hide="yes" size="1" pos="64" show="1" value="40"/>
        <field name="ngap.criticality" showname="criticality: ignore (1)" size="1" pos="64" show="1" value="40"/>
        <field name="per.open_type_length" showname="Open Type Length: 73" hide="yes" size="1" pos="65" show="73" value="49"/>
        <field name="ngap.value_element" showname="value" size="73" pos="66" show="" value="">
          <field name="ngap.UplinkNASTransport_element" showname="UplinkNASTransport" size="73" pos="66" show="" value="">
            <field name="per.extension_bit" showname="0... .... Extension Bit: False" hide="yes" size="1" pos="66" show="False" value="0" unmaskedvalue="00"/>
            <field name="per.sequence_of_length" showname="Sequence-Of Length: 4" hide="yes" size="2" pos="67" show="4" value="0004"/>
            <field name="ngap.protocolIEs" showname="protocolIEs: 4 items" size="70" pos="69" show="4" value="000a00068020418661b7005500048003c51e0026001d1c7e02f5c381f90e7e00572d10c4b95c0a78be191af273f3b5fdf7a7360079400f4002f810400944002002f810000765">
              <field name="" show="Item 0: id-AMF-UE-NGAP-ID" size="10" pos="69" value="000a00068020418661b7">
                <field name="ngap.ProtocolIE_Field_element" showname="ProtocolIE-Field" size="10" pos="69" show="" value="">
                  <field name="ngap.id" showname="id: id-AMF-UE-NGAP-ID (10)" size="2" pos="69" show="10" value="000a"/>
                  <field name="per.enum_index" showname="Enumerated Index: 0" hide="yes" size="1" pos="71" show="0" value="00"/>
                  <field name="ngap.criticality" showname="criticality: reject (0)" size="1" pos="71" show="0" value="00"/>
                  <field name="per.open_type_length" showname="Open Type Length: 6" hide="yes" size="1" pos="72" show="6" value="06"/>
                  <field name="ngap.value_element" showname="value" size="6" pos="73" show="" value="">
                    <field name="ngap.AMF_UE_NGAP_ID" showname="AMF-UE-NGAP-ID: 138538279351" size="6" pos="73" show="138538279351" value="8020418661b7"/>
                  </field>
                </field>
              </field>
              <field name="" show="Item 1: id-RAN-UE-NGAP-ID" size="8" pos="79" value="005500048003c51e">
                <field name="ngap.ProtocolIE_Field_element" showname="ProtocolIE-Field" size="8" pos="79" show="" value="">
                  <field name="ngap.id" showname="id: id-RAN-UE-NGAP-ID (85)" size="2" pos="79" show="85" value="0055"/>
                  <field name="per.enum_index" showname="Enumerated Index: 0" hide="yes" size="1" pos="81" show="0" value="00"/>
                  <field name="ngap.criticality" showname="criticality: reject (0)" size="1" pos="81" show="0" value="00"/>
                  <field name="per.open_type_length" showname="Open Type Length: 4" hide="yes" size="1" pos="82" show="4" value="04"/>
                  <field name="ngap.value_element" showname="value" size="4" pos="83" show="" value="">
                    <field name="ngap.RAN_UE_NGAP_ID" showname="RAN-UE-NGAP-ID: 247070" size="4" pos="83" show="247070" value="8003c51e"/>
                  </field>
                </field>
              </field>
              <field name="" show="Item 2: id-NAS-PDU" size="33" pos="87" value="0026001d1c7e02f5c381f90e7e00572d10c4b95c0a78be191af273f3b5fdf7a736">
                <field name="ngap.ProtocolIE_Field_element" showname="ProtocolIE-Field" size="33" pos="87" show="" value="">
                  <field name="ngap.id" showname="id: id-NAS-PDU (38)" size="2" pos="87" show="38" value="0026"/>
                  <field name="per.enum_index" showname="Enumerated Index: 0" hide="yes" size="1" pos="89" show="0" value="00"/>
                  <field name="ngap.criticality" showname="criticality: reject (0)" size="1" pos="89" show="0" value="00"/>
                  <field name="per.open_type_length" showname="Open Type Length: 29" hide="yes" size="1" pos="90" show="29" value="1d"/>
                  <field name="ngap.value_element" showname="value" size="29" pos="91" show="" value="">
                    <field name="per.octet_string_length" showname="Octet String Length: 28" hide="yes" size="1" pos="91" show="28" value="1c"/>
                    <field name="ngap.NAS_PDU" showname="NAS-PDU: 7e02f5c381f90e7e00572d10c4b95c0a78be191af273f3b5fdf7a736" size="28" pos="92" show="7e:02:f5:c3:81:f9:0e:7e:00:57:2d:10:c4:b9:5c:0a:78:be:19:1a:f2:73:f3:b5:fd:f7:a7:36" value="7e02f5c381f90e7e00572d10c4b95c0a78be191af273f3b5fdf7a736">
                      <proto name="nas-5gs" showname="Non-Access-Stratum 5GS (NAS)PDU" size="28" pos="92">
                        <field name="" show="Security protected NAS 5GS message" size="7" pos="92" value="7e02f5c381f90e">
                          <field name="nas-5gs.epd" showname="Extended protocol discriminator: 5G mobility management messages (126)" size="1" pos="92" show="126" value="7e"/>
                          <field name="nas-5gs.spare_half_octet" showname="0000 .... = Spare Half Octet: 0" size="1" pos="93" show="0" value="0" unmaskedvalue="02"/>
                          <field name="nas-5gs.security_header_type" showname=".... 0010 = Security header type: Integrity protected and ciphered (2)" size="1" pos="93" show="2" value="2" unmaskedvalue="02"/>
                          <field name="nas-5gs.msg_auth_code" showname="Message authentication code: 0xf5c381f9" size="4" pos="94" show="0xf5c381f9" value="f5c381f9"/>
                          <field name="nas-5gs.seq_no" showname="Sequence number: 14" size="1" pos="98" show="14" value="0e"/>
                        </field>
                        <field name="" show="Encrypted data" size="21" pos="99" value="7e00572d10c4b95c0a78be191af273f3b5fdf7a736"/>
                      </proto>
                    </field>
                  </field>
                </field>
              </field>
              <field name="" show="Item 3: id-UserLocationInformation" size="19" pos="120" value="0079400f4002f810400944002002f810000765">
                <field name="ngap.ProtocolIE_Field_element" showname="ProtocolIE-Field" size="19" pos="120" show="" value="">
                  <field name="ngap.id" showname="id: id-UserLocationInformation (121)" size="2" pos="120" show="121" value="0079"/>
                  <field name="per.enum_index" showname="Enumerated Index: 1" hide="yes" size="1" pos="122" show="1" value="40"/>
                  <field name="ngap.criticality" showname="criticality: ignore (1)" size="1" pos="122" show="1" value="40"/>
                  <field name="per.open_type_length" showname="Open Type Length: 15" hide="yes" size="1" pos="123" show="15" value="0f"/>
                  <field name="ngap.value_element" showname="value" size="15" pos="124" show="" value="">
                    <field name="per.choice_index" showname="Choice Index: 1" hide="yes" size="1" pos="124" show="1" value="40"/>
                    <field name="ngap.UserLocationInformation" showname="UserLocationInformation: userLocationInformationNR (1)" size="15" pos="124" show="1" value="4002f810400944002002f810000765">
                      <field name="ngap.userLocationInformationNR_element" showname="userLocationInformationNR" size="15" pos="124" show="" value="">
                        <field name="per.extension_bit" showname="..0. .... Extension Bit: False" hide="yes" size="1" pos="124" show="False" value="0" unmaskedvalue="40"/>
                        <field name="per.optional_field_bit" showname="...0 .... Optional Field Bit: False (timeStamp is NOT present)" hide="yes" size="1" pos="124" show="False" value="0" unmaskedvalue="40"/>
                        <field name="per.optional_field_bit" showname=".... 0... Optional Field Bit: False (iE-Extensions is NOT present)" hide="yes" size="1" pos="124" show="False" value="0" unmaskedvalue="40"/>
                        <field name="ngap.nR_CGI_element" showname="nR-CGI" size="8" pos="124" show="" value="">
                          <field name="per.extension_bit" showname=".... .0.. Extension Bit: False" hide="yes" size="1" pos="124" show="False" value="0" unmaskedvalue="40"/>
                          <field name="per.optional_field_bit" showname=".... ..0. Optional Field Bit: False (iE-Extensions is NOT present)" hide="yes" size="1" pos="124" show="False" value="0" unmaskedvalue="40"/>
                          <field name="ngap.pLMNIdentity" showname="pLMNIdentity: 02f810" size="3" pos="125" show="02:f8:10" value="02f810">
                            <field name="e212.nrcgi.mcc" showname="Mobile Country Code (MCC): France (208)" size="2" pos="125" show="208" value="02f8"/>
                            <field name="e212.nrcgi.mnc" showname="Mobile Network Code (MNC): Orange (01)" size="2" pos="126" show="01" value="f810"/>
                          </field>
                          <field name="ngap.NRCellIdentity" showname="0100 0000 0000 1001 0100 0100 0000 0000 0010 .... = nRCellIdentity: 0x400944002" size="5" pos="124" show="0x0000000400944002" value="400944002" unmaskedvalue="4009440020"/>
                        </field>
                        <field name="ngap.tAI_element" showname="tAI" size="7" pos="132" show="" value="">
                          <field name="per.extension_bit" showname=".... 0... Extension Bit: False" hide="yes" size="1" pos="132" show="False" value="0" unmaskedvalue="20"/>
                          <field name="per.optional_field_bit" showname=".... .0.. Optional Field Bit: False (iE-Extensions is NOT present)" hide="yes" size="1" pos="132" show="False" value="0" unmaskedvalue="20"/>
                          <field name="ngap.pLMNIdentity" showname="pLMNIdentity: 02f810" size="3" pos="133" show="02:f8:10" value="02f810">
                            <field name="e212.5gstai.mcc" showname="Mobile Country Code (MCC): France (208)" size="2" pos="133" show="208" value="02f8"/>
                            <field name="e212.5gstai.mnc" showname="Mobile Network Code (MNC): Orange (01)" size="2" pos="134" show="01" value="f810"/>
                          </field>
                          <field name="ngap.tAC" showname="tAC: 1893 (0x000765)" size="3" pos="136" show="1893" value="000765"/>
                        </field>
                      </field>
                    </field>
                  </field>
                </field>
              </field>
            </field>
          </field>
        </field>
      </field>
    </field>
  </proto>
</packet>

<packet>
  <proto name="geninfo" pos="0" showname="General information" size="117">
    <field name="num" pos="0" show="5" showname="Number" value="5" size="117"/>
    <field name="len" pos="0" show="117" showname="Frame Length" value="75" size="117"/>
    <field name="caplen" pos="0" show="117" showname="Captured Length" value="75" size="117"/>
    <field name="timestamp" pos="0" show="Oct 10, 2024 16:50:46.067156310 CEST" showname="Captured Time" value="1728571846.067156310" size="117"/>
  </proto>
  <proto name="frame" showname="Frame 5: 117 bytes on wire (936 bits), 117 bytes captured (936 bits)" size="117" pos="0">
    <field name="frame.encap_type" showname="Encapsulation type: Ethernet (1)" size="0" pos="0" show="1"/>
    <field name="frame.time" showname="Arrival Time: Oct 10, 2024 16:50:46.067156310 CEST" size="0" pos="0" show="Oct 10, 2024 16:50:46.067156310 CEST"/>
    <field name="frame.time_utc" showname="UTC Arrival Time: Oct 10, 2024 14:50:46.067156310 UTC" size="0" pos="0" show="Oct 10, 2024 14:50:46.067156310 UTC"/>
    <field name="frame.time_epoch" showname="Epoch Arrival Time: 1728571846.067156310" size="0" pos="0" show="1728571846.067156310"/>
    <field name="frame.offset_shift" showname="Time shift for this packet: 0.000000000 seconds" size="0" pos="0" show="0.000000000"/>
    <field name="frame.time_delta" showname="Time delta from previous captured frame: 0.013998342 seconds" size="0" pos="0" show="0.013998342"/>
    <field name="frame.time_delta_displayed" showname="Time delta from previous displayed frame: 0.013998342 seconds" size="0" pos="0" show="0.013998342"/>
    <field name="frame.time_relative" showname="Time since reference or first frame: 1.377514401 seconds" size="0" pos="0" show="1.377514401"/>
    <field name="frame.number" showname="Frame Number: 5" size="0" pos="0" show="5"/>
    <field name="frame.len" showname="Frame Length: 117 bytes (936 bits)" size="0" pos="0" show="117"/>
    <field name="frame.cap_len" showname="Capture Length: 117 bytes (936 bits)" size="0" pos="0" show="117"/>
    <field name="frame.marked" showname="Frame is marked: False" size="0" pos="0" show="False"/>
    <field name="frame.ignored" showname="Frame is ignored: False" size="0" pos="0" show="False"/>
    <field name="frame.protocols" showname="Protocols in frame: eth:ethertype:ip:sctp:ngap:ngap:nas-5gs" size="0" pos="0" show="eth:ethertype:ip:sctp:ngap:ngap:nas-5gs"/>
  </proto>
  <proto name="eth" showname="Ethernet II, Src: 00:00:00_00:00:00 (00:00:00:00:00:00), Dst: 00:00:00_00:00:00 (00:00:00:00:00:00)" size="14" pos="0">
    <field name="eth.dst" showname="Destination: 00:00:00_00:00:00 (00:00:00:00:00:00)" size="6" pos="0" show="00:00:00:00:00:00" value="000000000000">
      <field name="eth.dst_resolved" showname="Destination (resolved): 00:00:00_00:00:00" hide="yes" size="6" pos="0" show="00:00:00_00:00:00" value="000000000000"/>
      <field name="eth.dst.oui" showname="Destination OUI: 00:00:00 (Officially Xerox, but 0:0:0:0:0:0 is more common)" hide="yes" size="3" pos="0" show="0" value="000000"/>
      <field name="eth.dst.oui_resolved" showname="Destination OUI (resolved): Officially Xerox, but 0:0:0:0:0:0 is more common" hide="yes" size="6" pos="0" show="Officially Xerox, but 0:0:0:0:0:0 is more common" value="000000000000"/>
      <field name="eth.dst.lg" showname=".... ..0. .... .... .... .... = LG bit: Globally unique address (factory default)" size="3" pos="0" show="False" value="0" unmaskedvalue="000000"/>
      <field name="eth.dst.ig" showname=".... ...0 .... .... .... .... = IG bit: Individual address (unicast)" size="3" pos="0" show="False" value="0" unmaskedvalue="000000"/>
      <field name="eth.addr" showname="Address: 00:00:00_00:00:00 (00:00:00:00:00:00)" hide="yes" size="6" pos="0" show="00:00:00:00:00:00" value="000000000000"/>
      <field name="eth.addr_resolved" showname="Address (resolved): 00:00:00_00:00:00" hide="yes" size="6" pos="0" show="00:00:00_00:00:00" value="000000000000"/>
      <field name="eth.addr.oui" showname="Address OUI: 00:00:00 (Officially Xerox, but 0:0:0:0:0:0 is more common)" hide="yes" size="3" pos="0" show="0" value="000000"/>
      <field name="eth.addr.oui_resolved" showname="Address OUI (resolved): Officially Xerox, but 0:0:0:0:0:0 is more common" hide="yes" size="6" pos="0" show="Officially Xerox, but 0:0:0:0:0:0 is more common" value="000000000000"/>
      <field name="eth.lg" showname=".... ..0. .... .... .... .... = LG bit: Globally unique address (factory default)" hide="yes" size="3" pos="0" show="False" value="0" unmaskedvalue="000000"/>
      <field name="eth.ig" showname=".... ...0 .... .... .... .... = IG bit: Individual address (unicast)" hide="yes" size="3" pos="0" show="False" value="0" unmaskedvalue="000000"/>
    </field>
    <field name="eth.src" showname="Source: 00:00:00_00:00:00 (00:00:00:00:00:00)" size="6" pos="6" show="00:00:00:00:00:00" value="000000000000">
      <field name="eth.src_resolved" showname="Source (resolved): 00:00:00_00:00:00" hide="yes" size="6" pos="6" show="00:00:00_00:00:00" value="000000000000"/>
      <field name="eth.src.oui" showname="Source OUI: 00:00:00 (Officially Xerox, but 0:0:0:0:0:0 is more common)" hide="yes" size="3" pos="6" show="0" value="000000"/>
      <field name="eth.src.oui_resolved" showname="Source OUI (resolved): Officially Xerox, but 0:0:0:0:0:0 is more common" hide="yes" size="6" pos="6" show="Officially Xerox, but 0:0:0:0:0:0 is more common" value="000000000000"/>
      <field name="eth.src.lg" showname=".... ..0. .... .... .... .... = LG bit: Globally unique address (factory default)" size="3" pos="6" show="False" value="0" unmaskedvalue="000000"/>
      <field name="eth.src.ig" showname=".... ...0 .... .... .... .... = IG bit: Individual address (unicast)" size="3" pos="6" show="False" value="0" unmaskedvalue="000000"/>
      <field name="eth.addr" showname="Address: 00:00:00_00:00:00 (00:00:00:00:00:00)" hide="yes" size="6" pos="6" show="00:00:00:00:00:00" value="000000000000"/>
      <field name="eth.addr_resolved" showname="Address (resolved): 00:00:00_00:00:00" hide="yes" size="6" pos="6" show="00:00:00_00:00:00" value="000000000000"/>
      <field name="eth.addr.oui" showname="Address OUI: 00:00:00 (Officially Xerox, but 0:0:0:0:0:0 is more common)" hide="yes" size="3" pos="6" show="0" value="000000"/>
      <field name="eth.addr.oui_resolved" showname="Address OUI (resolved): Officially Xerox, but 0:0:0:0:0:0 is more common" hide="yes" size="6" pos="6" show="Officially Xerox, but 0:0:0:0:0:0 is more common" value="000000000000"/>
      <field name="eth.lg" showname=".... ..0. .... .... .... .... = LG bit: Globally unique address (factory default)" hide="yes" size="3" pos="6" show="False" value="0" unmaskedvalue="000000"/>
      <field name="eth.ig" showname=".... ...0 .... .... .... .... = IG bit: Individual address (unicast)" hide="yes" size="3" pos="6" show="False" value="0" unmaskedvalue="000000"/>
    </field>
    <field name="eth.type" showname="Type: IPv4 (0x0800)" size="2" pos="12" show="0x0800" value="0800"/>
    <field name="eth.stream" showname="Stream index: 0" size="0" pos="0" show="0"/>
  </proto>
  <proto name="ip" showname="Internet Protocol Version 4, Src: 10.105.43.26, Dst: 10.71.248.125" size="20" pos="14">
    <field name="ip.version" showname="0100 .... = Version: 4" size="1" pos="14" show="4" value="45"/>
    <field name="ip.hdr_len" showname=".... 0101 = Header Length: 20 bytes (5)" size="1" pos="14" show="20" value="45"/>
    <field name="ip.dsfield" showname="Differentiated Services Field: 0xb8 (DSCP: EF PHB, ECN: Not-ECT)" size="1" pos="15" show="0xb8" value="b8">
      <field name="ip.dsfield.dscp" showname="1011 10.. = Differentiated Services Codepoint: Expedited Forwarding (46)" size="1" pos="15" show="46" value="2E" unmaskedvalue="b8"/>
      <field name="ip.dsfield.ecn" showname=".... ..00 = Explicit Congestion Notification: Not ECN-Capable Transport (0)" size="1" pos="15" show="0" value="0" unmaskedvalue="b8"/>
    </field>
    <field name="ip.len" showname="Total Length: 103" size="2" pos="16" show="103" value="0067"/>
    <field name="ip.id" showname="Identification: 0x22ce (8910)" size="2" pos="18" show="0x22ce" value="22ce"/>
    <field name="ip.flags" showname="000. .... = Flags: 0x0" size="1" pos="20" show="0x00" value="0" unmaskedvalue="00">
      <field name="ip.flags.rb" showname="0... .... = Reserved bit: Not set" size="1" pos="20" show="False" value="0" unmaskedvalue="00"/>
      <field name="ip.flags.df" showname=".0.. .... = Don&#x27;t fragment: Not set" size="1" pos="20" show="False" value="0" unmaskedvalue="00"/>
      <field name="ip.flags.mf" showname="..0. .... = More fragments: Not set" size="1" pos="20" show="False" value="0" unmaskedvalue="00"/>
    </field>
    <field name="ip.frag_offset" showname="...0 0000 0000 0000 = Fragment Offset: 0" size="2" pos="20" show="0" value="0" unmaskedvalue="0000"/>
    <field name="ip.ttl" showname="Time to Live: 254" size="1" pos="22" show="254" value="fe"/>
    <field name="ip.proto" showname="Protocol: SCTP (132)" size="1" pos="23" show="132" value="84"/>
    <field name="ip.checksum" showname="Header Checksum: 0x6045 [validation disabled]" size="2" pos="24" show="0x6045" value="6045"/>
    <field name="ip.checksum.status" showname="Header checksum status: Unverified" size="0" pos="24" show="2"/>
    <field name="ip.src" showname="Source Address: 10.105.43.26" size="4" pos="26" show="10.105.43.26" value="0a692b1a"/>
    <field name="ip.addr" showname="Source or Destination Address: 10.105.43.26" hide="yes" size="4" pos="26" show="10.105.43.26" value="0a692b1a"/>
    <field name="ip.src_host" showname="Source Host: 10.105.43.26" hide="yes" size="4" pos="26" show="10.105.43.26" value="0a692b1a"/>
    <field name="ip.host" showname="Source or Destination Host: 10.105.43.26" hide="yes" size="4" pos="26" show="10.105.43.26" value="0a692b1a"/>
    <field name="ip.dst" showname="Destination Address: 10.71.248.125" size="4" pos="30" show="10.71.248.125" value="0a47f87d"/>
    <field name="ip.addr" showname="Source or Destination Address: 10.71.248.125" hide="yes" size="4" pos="30" show="10.71.248.125" value="0a47f87d"/>
    <field name="ip.dst_host" showname="Destination Host: 10.71.248.125" hide="yes" size="4" pos="30" show="10.71.248.125" value="0a47f87d"/>
    <field name="ip.host" showname="Source or Destination Host: 10.71.248.125" hide="yes" size="4" pos="30" show="10.71.248.125" value="0a47f87d"/>
    <field name="ip.stream" showname="Stream index: 0" size="0" pos="34" show="0"/>
  </proto>
  <proto name="sctp" showname="Stream Control Transmission Protocol, Src Port: 38412 (38412), Dst Port: 38412 (38412)" size="28" pos="34">
    <field name="sctp.srcport" showname="Source port: 38412" size="2" pos="34" show="38412" value="960c"/>
    <field name="sctp.dstport" showname="Destination port: 38412" size="2" pos="36" show="38412" value="960c"/>
    <field name="sctp.verification_tag" showname="Verification tag: 0xd1d212df" size="4" pos="38" show="0xd1d212df" value="d1d212df"/>
    <field name="sctp.assoc_index" showname="Association index: disabled (enable in preferences)" size="0" pos="34" show="65535"/>
    <field name="sctp.port" showname="Port: 38412" hide="yes" size="2" pos="34" show="38412" value="960c"/>
    <field name="sctp.port" showname="Port: 38412" hide="yes" size="2" pos="36" show="38412" value="960c"/>
    <field name="sctp.checksum" showname="Checksum: 0xf5f7653d [unverified]" size="4" pos="42" show="0xf5f7653d" value="f5f7653d"/>
    <field name="sctp.checksum.status" showname="Checksum Status: Unverified" size="0" pos="42" show="2"/>
    <field name="sctp.chunk" showname="DATA chunk (ordered, complete segment, TSN: 2, SID: 1, SSN: 2190, PPID: 60, payload length: 55 bytes)" size="16" pos="46" show="" value="">
      <field name="sctp.chunk_type" showname="Chunk type: DATA (0)" size="1" pos="46" show="0" value="00">
        <field name="sctp.chunk_bit_1" showname="0... .... = Bit: Stop processing of the packet" size="1" pos="46" show="False" value="0" unmaskedvalue="00"/>
        <field name="sctp.chunk_bit_2" showname=".0.. .... = Bit: Do not report" size="1" pos="46" show="False" value="0" unmaskedvalue="00"/>
      </field>
      <field name="sctp.chunk_flags" showname="Chunk flags: 0x03" size="1" pos="47" show="0x03" value="03">
        <field name="sctp.data_i_bit" showname=".... 0... = I-Bit: Possibly delay SACK" size="1" pos="47" show="False" value="0" unmaskedvalue="03"/>
        <field name="sctp.data_u_bit" showname=".... .0.. = U-Bit: Ordered delivery" size="1" pos="47" show="False" value="0" unmaskedvalue="03"/>
        <field name="sctp.data_b_bit" showname=".... ..1. = B-Bit: First segment" size="1" pos="47" show="True" value="1" unmaskedvalue="03"/>
        <field name="sctp.data_e_bit" showname=".... ...1 = E-Bit: Last segment" size="1" pos="47" show="True" value="1" unmaskedvalue="03"/>
      </field>
      <field name="sctp.chunk_length" showname="Chunk length: 71" size="2" pos="48" show="71" value="0047"/>
      <field name="sctp.data_tsn" showname="Transmission sequence number (relative): 2" size="4" pos="50" show="2" value="d4728131"/>
      <field name="sctp.data_tsn_raw" showname="Transmission sequence number (absolute): 3564273969" size="4" pos="50" show="3564273969" value="d4728131"/>
      <field name="sctp.data_sid" showname="Stream identifier: 0x0001" size="2" pos="54" show="0x0001" value="0001"/>
      <field name="sctp.data_ssn" showname="Stream sequence number: 2190" size="2" pos="56" show="2190" value="088e"/>
      <field name="sctp.data_payload_proto_id" showname="Payload protocol identifier: NGAP (60)" size="4" pos="58" show="60" value="0000003c"/>
    </field>
  </proto>
  <proto name="ngap" showname="NG Application Protocol (DownlinkNASTransport)" size="55" pos="62">
    <field name="per.extension_bit" showname="0... .... Extension Bit: False" hide="yes" size="1" pos="62" show="False" value="0" unmaskedvalue="00"/>
    <field name="per.choice_index" showname="Choice Index: 0" hide="yes" size="1" pos="62" show="0" value="00"/>
    <field name="ngap.NGAP_PDU" showname="NGAP-PDU: initiatingMessage (0)" size="55" pos="62" show="0" value="00044033000003000a00068020418661b7005500048003c51e0026001a197e037d4f017f007e005d220204f070f07057111904f070c040">
      <field name="ngap.initiatingMessage_element" showname="initiatingMessage" size="55" pos="62" show="" value="">
        <field name="ngap.procedureCode" showname="procedureCode: id-DownlinkNASTransport (4)" size="1" pos="63" show="4" value="04"/>
        <field name="per.enum_index" showname="Enumerated Index: 1" hide="yes" size="1" pos="64" show="1" value="40"/>
        <field name="ngap.criticality" showname="criticality: ignore (1)" size="1" pos="64" show="1" value="40"/>
        <field name="per.open_type_length" showname="Open Type Length: 51" hide="yes" size="1" pos="65" show="51" value="33"/>
        <field name="ngap.value_element" showname="value" size="51" pos="66" show="" value="">
          <field name="ngap.DownlinkNASTransport_element" showname="DownlinkNASTransport" size="51" pos="66" show="" value="">
            <field name="per.extension_bit" showname="0... .... Extension Bit: False" hide="yes" size="1" pos="66" show="False" value="0" unmaskedvalue="00"/>
            <field name="per.sequence_of_length" showname="Sequence-Of Length: 3" hide="yes" size="2" pos="67" show="3" value="0003"/>
            <field name="ngap.protocolIEs" showname="protocolIEs: 3 items" size="48" pos="69" show="3" value="000a00068020418661b7005500048003c51e0026001a197e037d4f017f007e005d220204f070f07057111904f070c040">
              <field name="" show="Item 0: id-AMF-UE-NGAP-ID" size="10" pos="69" value="000a00068020418661b7">
                <field name="ngap.ProtocolIE_Field_element" showname="ProtocolIE-Field" size="10" pos="69" show="" value="">
                  <field name="ngap.id" showname="id: id-AMF-UE-NGAP-ID (10)" size="2" pos="69" show="10" value="000a"/>
                  <field name="per.enum_index" showname="Enumerated Index: 0" hide="yes" size="1" pos="71" show="0" value="00"/>
                  <field name="ngap.criticality" showname="criticality: reject (0)" size="1" pos="71" show="0" value="00"/>
                  <field name="per.open_type_length" showname="Open Type Length: 6" hide="yes" size="1" pos="72" show="6" value="06"/>
                  <field name="ngap.value_element" showname="value" size="6" pos="73" show="" value="">
                    <field name="ngap.AMF_UE_NGAP_ID" showname="AMF-UE-NGAP-ID: 138538279351" size="6" pos="73" show="138538279351" value="8020418661b7"/>
                  </field>
                </field>
              </field>
              <field name="" show="Item 1: id-RAN-UE-NGAP-ID" size="8" pos="79" value="005500048003c51e">
                <field name="ngap.ProtocolIE_Field_element" showname="ProtocolIE-Field" size="8" pos="79" show="" value="">
                  <field name="ngap.id" showname="id: id-RAN-UE-NGAP-ID (85)" size="2" pos="79" show="85" value="0055"/>
                  <field name="per.enum_index" showname="Enumerated Index: 0" hide="yes" size="1" pos="81" show="0" value="00"/>
                  <field name="ngap.criticality" showname="criticality: reject (0)" size="1" pos="81" show="0" value="00"/>
                  <field name="per.open_type_length" showname="Open Type Length: 4" hide="yes" size="1" pos="82" show="4" value="04"/>
                  <field name="ngap.value_element" showname="value" size="4" pos="83" show="" value="">
                    <field name="ngap.RAN_UE_NGAP_ID" showname="RAN-UE-NGAP-ID: 247070" size="4" pos="83" show="247070" value="8003c51e"/>
                  </field>
                </field>
              </field>
              <field name="" show="Item 2: id-NAS-PDU" size="30" pos="87" value="0026001a197e037d4f017f007e005d220204f070f07057111904f070c040">
                <field name="ngap.ProtocolIE_Field_element" showname="ProtocolIE-Field" size="30" pos="87" show="" value="">
                  <field name="ngap.id" showname="id: id-NAS-PDU (38)" size="2" pos="87" show="38" value="0026"/>
                  <field name="per.enum_index" showname="Enumerated Index: 0" hide="yes" size="1" pos="89" show="0" value="00"/>
                  <field name="ngap.criticality" showname="criticality: reject (0)" size="1" pos="89" show="0" value="00"/>
                  <field name="per.open_type_length" showname="Open Type Length: 26" hide="yes" size="1" pos="90" show="26" value="1a"/>
                  <field name="ngap.value_element" showname="value" size="26" pos="91" show="" value="">
                    <field name="per.octet_string_length" showname="Octet String Length: 25" hide="yes" size="1" pos="91" show="25" value="19"/>
                    <field name="ngap.NAS_PDU" showname="NAS-PDU: 7e037d4f017f007e005d220204f070f07057111904f070c040" size="25" pos="92" show="7e:03:7d:4f:01:7f:00:7e:00:5d:22:02:04:f0:70:f0:70:57:11:19:04:f0:70:c0:40" value="7e037d4f017f007e005d220204f070f07057111904f070c040">
                      <proto name="nas-5gs" showname="Non-Access-Stratum 5GS (NAS)PDU" size="25" pos="92">
                        <field name="" show="Security protected NAS 5GS message" size="7" pos="92" value="7e037d4f017f00">
                          <field name="nas-5gs.epd" showname="Extended protocol discriminator: 5G mobility management messages (126)" size="1" pos="92" show="126" value="7e"/>
                          <field name="nas-5gs.spare_half_octet" showname="0000 .... = Spare Half Octet: 0" size="1" pos="93" show="0" value="0" unmaskedvalue="03"/>
                          <field name="nas-5gs.security_header_type" showname=".... 0011 = Security header type: Integrity protected with new 5GS security context (3)" size="1" pos="93" show="3" value="3" unmaskedvalue="03"/>
                          <field name="nas-5gs.msg_auth_code" showname="Message authentication code: 0x7d4f017f" size="4" pos="94" show="0x7d4f017f" value="7d4f017f"/>
                          <field name="nas-5gs.seq_no" showname="Sequence number: 0" size="1" pos="98" show="0" value="00"/>
                        </field>
                        <field name="" show="Plain NAS 5GS Message" size="18" pos="99" value="7e005d220204f070f07057111904f070c040">
                          <field name="nas-5gs.epd" showname="Extended protocol discriminator: 5G mobility management messages (126)" size="1" pos="99" show="126" value="7e"/>
                          <field name="nas-5gs.spare_half_octet" showname="0000 .... = Spare Half Octet: 0" size="1" pos="100" show="0" value="0" unmaskedvalue="00"/>
                          <field name="nas-5gs.security_header_type" showname=".... 0000 = Security header type: Plain NAS message, not security protected (0)" size="1" pos="100" show="0" value="0" unmaskedvalue="00"/>
                          <field name="nas-5gs.mm.message_type" showname="Message type: Security mode command (0x5d)" size="1" pos="101" show="0x5d" value="5d"/>
                          <field name="" show="NAS security algorithms" size="1" pos="102" value="22">
                            <field name="nas-5gs.mm.nas_sec_algo_enc" showname="0010 .... = Type of ciphering algorithm: 128-5G-EA2 (2)" size="1" pos="102" show="2" value="2" unmaskedvalue="22"/>
                            <field name="nas-5gs.mm.nas_sec_algo_ip" showname=".... 0010 = Type of integrity protection algorithm: 128-5G-IA2 (2)" size="1" pos="102" show="2" value="2" unmaskedvalue="22"/>
                          </field>
                          <field name="nas-5gs.spare_half_octet" showname="0000 .... = Spare Half Octet: 0" size="1" pos="103" show="0" value="0" unmaskedvalue="02"/>
                          <field name="" show="NAS key set identifier - ngKSI" size="1" pos="103" value="02">
                            <field name="nas-5gs.mm.tsc" showname=".... 0... = Type of security context flag (TSC): Native security context (for KSIAMF)" size="1" pos="103" show="False" value="0" unmaskedvalue="02"/>
                            <field name="nas-5gs.mm.nas_key_set_id" showname=".... .010 = NAS key set identifier: 2" size="1" pos="103" show="2" value="2" unmaskedvalue="02"/>
                          </field>
                          <field name="" show="UE security capability - Replayed UE security capabilities" size="5" pos="104" value="04f070f070">
                            <field name="gsm_a.len" showname="Length: 4" size="1" pos="104" show="4" value="04"/>
                            <field name="nas-5gs.mm.5g_ea0" showname="1... .... = 5G-EA0: Supported" size="1" pos="105" show="True" value="1" unmaskedvalue="f0"/>
                            <field name="nas-5gs.mm.128_5g_ea1" showname=".1.. .... = 128-5G-EA1: Supported" size="1" pos="105" show="True" value="1" unmaskedvalue="f0"/>
                            <field name="nas-5gs.mm.128_5g_ea2" showname="..1. .... = 128-5G-EA2: Supported" size="1" pos="105" show="True" value="1" unmaskedvalue="f0"/>
                            <field name="nas-5gs.mm.128_5g_ea3" showname="...1 .... = 128-5G-EA3: Supported" size="1" pos="105" show="True" value="1" unmaskedvalue="f0"/>
                            <field name="nas-5gs.mm.5g_ea4" showname=".... 0... = 5G-EA4: Not supported" size="1" pos="105" show="False" value="0" unmaskedvalue="f0"/>
                            <field name="nas-5gs.mm.5g_ea5" showname=".... .0.. = 5G-EA5: Not supported" size="1" pos="105" show="False" value="0" unmaskedvalue="f0"/>
                            <field name="nas-5gs.mm.5g_ea6" showname=".... ..0. = 5G-EA6: Not supported" size="1" pos="105" show="False" value="0" unmaskedvalue="f0"/>
                            <field name="nas-5gs.mm.5g_ea7" showname=".... ...0 = 5G-EA7: Not supported" size="1" pos="105" show="False" value="0" unmaskedvalue="f0"/>
                            <field name="nas-5gs.mm.ia0" showname="0... .... = 5G-IA0: Not supported" size="1" pos="106" show="False" value="0" unmaskedvalue="70"/>
                            <field name="nas-5gs.mm.5g_128_ia1" showname=".1.. .... = 128-5G-IA1: Supported" size="1" pos="106" show="True" value="1" unmaskedvalue="70"/>
                            <field name="nas-5gs.mm.5g_128_ia2" showname="..1. .... = 128-5G-IA2: Supported" size="1" pos="106" show="True" value="1" unmaskedvalue="70"/>
                            <field name="nas-5gs.mm.5g_128_ia3" showname="...1 .... = 128-5G-IA3: Supported" size="1" pos="106" show="True" value="1" unmaskedvalue="70"/>
                            <field name="nas-5gs.mm.5g_128_ia4" showname=".... 0... = 5G-IA4: Not supported" size="1" pos="106" show="False" value="0" unmaskedvalue="70"/>
                            <field name="nas-5gs.mm.5g_ia5" showname=".... .0.. = 5G-IA5: Not supported" size="1" pos="106" show="False" value="0" unmaskedvalue="70"/>
                            <field name="nas-5gs.mm.5g_ia6" showname=".... ..0. = 5G-IA6: Not supported" size="1" pos="106" show="False" value="0" unmaskedvalue="70"/>
                            <field name="nas-5gs.mm.5g_ia7" showname=".... ...0 = 5G-IA7: Not supported" size="1" pos="106" show="False" value="0" unmaskedvalue="70"/>
                            <field name="nas-5gs.mm.eea0" showname="1... .... = EEA0: Supported" size="1" pos="107" show="True" value="1" unmaskedvalue="f0"/>
                            <field name="nas-5gs.mm.128eea1" showname=".1.. .... = 128-EEA1: Supported" size="1" pos="107" show="True" value="1" unmaskedvalue="f0"/>
                            <field name="nas-5gs.mm.128eea2" showname="..1. .... = 128-EEA2: Supported" size="1" pos="107" show="True" value="1" unmaskedvalue="f0"/>
                            <field name="nas-5gs.mm.eea3" showname="...1 .... = 128-EEA3: Supported" size="1" pos="107" show="True" value="1" unmaskedvalue="f0"/>
                            <field name="nas-5gs.mm.eea4" showname=".... 0... = EEA4: Not supported" size="1" pos="107" show="False" value="0" unmaskedvalue="f0"/>
                            <field name="nas-5gs.mm.eea5" showname=".... .0.. = EEA5: Not supported" size="1" pos="107" show="False" value="0" unmaskedvalue="f0"/>
                            <field name="nas-5gs.mm.eea6" showname=".... ..0. = EEA6: Not supported" size="1" pos="107" show="False" value="0" unmaskedvalue="f0"/>
                            <field name="nas-5gs.mm.eea7" showname=".... ...0 = EEA7: Not supported" size="1" pos="107" show="False" value="0" unmaskedvalue="f0"/>
                            <field name="nas-5gs.mm.eia0" showname="0... .... = EIA0: Not supported" size="1" pos="108" show="False" value="0" unmaskedvalue="70"/>
                            <field name="nas-5gs.mm.128eia1" showname=".1.. .... = 128-EIA1: Supported" size="1" pos="108" show="True" value="1" unmaskedvalue="70"/>
                            <field name="nas-5gs.mm.128eia2" showname="..1. .... = 128-EIA2: Supported" size="1" pos="108" show="True" value="1" unmaskedvalue="70"/>
                            <field name="nas-5gs.mm.eia3" showname="...1 .... = 128-EIA3: Supported" size="1" pos="108" show="True" value="1" unmaskedvalue="70"/>
                            <field name="nas-5gs.mm.eia4" showname=".... 0... = EIA4: Not supported" size="1" pos="108" show="False" value="0" unmaskedvalue="70"/>
                            <field name="nas-5gs.mm.eia5" showname=".... .0.. = EIA5: Not supported" size="1" pos="108" show="False" value="0" unmaskedvalue="70"/>
                            <field name="nas-5gs.mm.eia6" showname=".... ..0. = EIA6: Not supported" size="1" pos="108" show="False" value="0" unmaskedvalue="70"/>
                            <field name="nas-5gs.mm.eia7" showname=".... ...0 = EIA7: Not supported" size="1" pos="108" show="False" value="0" unmaskedvalue="70"/>
                          </field>
                          <field name="" show="NAS security algorithms - Selected EPS NAS security algorithms" size="2" pos="109" value="5711">
                            <field name="nas-eps.emm.elem_id" showname="Element ID: 0x57" size="1" pos="109" show="0x57" value="57"/>
                            <field name="nas-eps.spare_bits" showname="0... .... = Spare bit(s): 0x00" size="1" pos="110" show="0x00" value="11"/>
                            <field name="nas-eps.emm.toc" showname=".001 .... = Type of ciphering algorithm: EPS encryption algorithm 128-EEA1 (1)" size="1" pos="110" show="1" value="1" unmaskedvalue="11"/>
                            <field name="nas-eps.spare_bits" showname=".... 0... = Spare bit(s): 0x00" size="1" pos="110" show="0x00" value="11"/>
                            <field name="nas-eps.emm.toi" showname=".... .001 = Type of integrity protection algorithm: EPS integrity algorithm 128-EIA1 (1)" size="1" pos="110" show="1" value="1" unmaskedvalue="11"/>
                          </field>
                          <field name="" show="UE security capability - Replayed S1 UE security capabilities" size="6" pos="111" value="1904f070c040">
                            <field name="nas-eps.emm.elem_id" showname="Element ID: 0x19" size="1" pos="111" show="0x19" value="19"/>
                            <field name="gsm_a.len" showname="Length: 4" size="1" pos="112" show="4" value="04"/>
                            <field name="nas-eps.emm.eea0" showname="1... .... = EEA0: Supported" size="1" pos="113" show="True" value="1" unmaskedvalue="f0"/>
                            <field name="nas-eps.emm.128eea1" showname=".1.. .... = 128-EEA1: Supported" size="1" pos="113" show="True" value="1" unmaskedvalue="f0"/>
                            <field name="nas-eps.emm.128eea2" showname="..1. .... = 128-EEA2: Supported" size="1" pos="113" show="True" value="1" unmaskedvalue="f0"/>
                            <field name="nas-eps.emm.eea3" showname="...1 .... = 128-EEA3: Supported" size="1" pos="113" show="True" value="1" unmaskedvalue="f0"/>
                            <field name="nas-eps.emm.eea4" showname=".... 0... = EEA4: Not supported" size="1" pos="113" show="False" value="0" unmaskedvalue="f0"/>
                            <field name="nas-eps.emm.eea5" showname=".... .0.. = EEA5: Not supported" size="1" pos="113" show="False" value="0" unmaskedvalue="f0"/>
                            <field name="nas-eps.emm.eea6" showname=".... ..0. = EEA6: Not supported" size="1" pos="113" show="False" value="0" unmaskedvalue="f0"/>
                            <field name="nas-eps.emm.eea7" showname=".... ...0 = EEA7: Not supported" size="1" pos="113" show="False" value="0" unmaskedvalue="f0"/>
                            <field name="nas-eps.emm.eia0" showname="0... .... = EIA0: Not supported" size="1" pos="114" show="False" value="0" unmaskedvalue="70"/>
                            <field name="nas-eps.emm.128eia1" showname=".1.. .... = 128-EIA1: Supported" size="1" pos="114" show="True" value="1" unmaskedvalue="70"/>
                            <field name="nas-eps.emm.128eia2" showname="..1. .... = 128-EIA2: Supported" size="1" pos="114" show="True" value="1" unmaskedvalue="70"/>
                            <field name="nas-eps.emm.eia3" showname="...1 .... = 128-EIA3: Supported" size="1" pos="114" show="True" value="1" unmaskedvalue="70"/>
                            <field name="nas-eps.emm.eia4" showname=".... 0... = EIA4: Not supported" size="1" pos="114" show="False" value="0" unmaskedvalue="70"/>
                            <field name="nas-eps.emm.eia5" showname=".... .0.. = EIA5: Not supported" size="1" pos="114" show="False" value="0" unmaskedvalue="70"/>
                            <field name="nas-eps.emm.eia6" showname=".... ..0. = EIA6: Not supported" size="1" pos="114" show="False" value="0" unmaskedvalue="70"/>
                            <field name="nas-eps.emm.eps_upip" showname=".... ...0 = EPS-UPIP: Not supported" size="1" pos="114" show="False" value="0" unmaskedvalue="70"/>
                            <field name="nas-eps.emm.uea0" showname="1... .... = UEA0: Supported" size="1" pos="115" show="True" value="1" unmaskedvalue="c0"/>
                            <field name="nas-eps.emm.uea1" showname=".1.. .... = UEA1: Supported" size="1" pos="115" show="True" value="1" unmaskedvalue="c0"/>
                            <field name="nas-eps.emm.uea2" showname="..0. .... = UEA2: Not supported" size="1" pos="115" show="False" value="0" unmaskedvalue="c0"/>
                            <field name="nas-eps.emm.uea3" showname="...0 .... = UEA3: Not supported" size="1" pos="115" show="False" value="0" unmaskedvalue="c0"/>
                            <field name="nas-eps.emm.uea4" showname=".... 0... = UEA4: Not supported" size="1" pos="115" show="False" value="0" unmaskedvalue="c0"/>
                            <field name="nas-eps.emm.uea5" showname=".... .0.. = UEA5: Not supported" size="1" pos="115" show="False" value="0" unmaskedvalue="c0"/>
                            <field name="nas-eps.emm.uea6" showname=".... ..0. = UEA6: Not supported" size="1" pos="115" show="False" value="0" unmaskedvalue="c0"/>
                            <field name="nas-eps.emm.uea7" showname=".... ...0 = UEA7: Not supported" size="1" pos="115" show="False" value="0" unmaskedvalue="c0"/>
                            <field name="nas-eps.spare_bits" showname="0... .... = Spare bit(s): 0x0" size="1" pos="116" show="0x00" value="0" unmaskedvalue="40"/>
                            <field name="nas-eps.emm.uia1" showname=".1.. .... = UMTS integrity algorithm UIA1: Supported" size="1" pos="116" show="True" value="1" unmaskedvalue="40"/>
                            <field name="nas-eps.emm.uia2" showname="..0. .... = UMTS integrity algorithm UIA2: Not supported" size="1" pos="116" show="False" value="0" unmaskedvalue="40"/>
                            <field name="nas-eps.emm.uia3" showname="...0 .... = UMTS integrity algorithm UIA3: Not supported" size="1" pos="116" show="False" value="0" unmaskedvalue="40"/>
                            <field name="nas-eps.emm.uia4" showname=".... 0... = UMTS integrity algorithm UIA4: Not supported" size="1" pos="116" show="False" value="0" unmaskedvalue="40"/>
                            <field name="nas-eps.emm.uia5" showname=".... .0.. = UMTS integrity algorithm UIA5: Not supported" size="1" pos="116" show="False" value="0" unmaskedvalue="40"/>
                            <field name="nas-eps.emm.uia6" showname=".... ..0. = UMTS integrity algorithm UIA6: Not supported" size="1" pos="116" show="False" value="0" unmaskedvalue="40"/>
                            <field name="nas-eps.emm.uia7" showname=".... ...0 = UMTS integrity algorithm UIA7: Not supported" size="1" pos="116" show="False" value="0" unmaskedvalue="40"/>
                          </field>
                        </field>
                      </proto>
                    </field>
                  </field>
                </field>
              </field>
            </field>
          </field>
        </field>
      </field>
    </field>
  </proto>
</packet>

<packet>
  <proto name="geninfo" pos="0" showname="General information" size="121">
    <field name="num" pos="0" show="6" showname="Number" value="6" size="121"/>
    <field name="len" pos="0" show="121" showname="Frame Length" value="79" size="121"/>
    <field name="caplen" pos="0" show="121" showname="Captured Length" value="79" size="121"/>
    <field name="timestamp" pos="0" show="Oct 10, 2024 16:50:46.092700062 CEST" showname="Captured Time" value="1728571846.092700062" size="121"/>
  </proto>
  <proto name="frame" showname="Frame 6: 121 bytes on wire (968 bits), 121 bytes captured (968 bits)" size="121" pos="0">
    <field name="frame.encap_type" showname="Encapsulation type: Ethernet (1)" size="0" pos="0" show="1"/>
    <field name="frame.time" showname="Arrival Time: Oct 10, 2024 16:50:46.092700062 CEST" size="0" pos="0" show="Oct 10, 2024 16:50:46.092700062 CEST"/>
    <field name="frame.time_utc" showname="UTC Arrival Time: Oct 10, 2024 14:50:46.092700062 UTC" size="0" pos="0" show="Oct 10, 2024 14:50:46.092700062 UTC"/>
    <field name="frame.time_epoch" showname="Epoch Arrival Time: 1728571846.092700062" size="0" pos="0" show="1728571846.092700062"/>
    <field name="frame.offset_shift" showname="Time shift for this packet: 0.000000000 seconds" size="0" pos="0" show="0.000000000"/>
    <field name="frame.time_delta" showname="Time delta from previous captured frame: 0.025543752 seconds" size="0" pos="0" show="0.025543752"/>
    <field name="frame.time_delta_displayed" showname="Time delta from previous displayed frame: 0.025543752 seconds" size="0" pos="0" show="0.025543752"/>
    <field name="frame.time_relative" showname="Time since reference or first frame: 1.403058153 seconds" size="0" pos="0" show="1.403058153"/>
    <field name="frame.number" showname="Frame Number: 6" size="0" pos="0" show="6"/>
    <field name="frame.len" showname="Frame Length: 121 bytes (968 bits)" size="0" pos="0" show="121"/>
    <field name="frame.cap_len" showname="Capture Length: 121 bytes (968 bits)" size="0" pos="0" show="121"/>
    <field name="frame.marked" showname="Frame is marked: False" size="0" pos="0" show="False"/>
    <field name="frame.ignored" showname="Frame is ignored: False" size="0" pos="0" show="False"/>
    <field name="frame.protocols" showname="Protocols in frame: eth:ethertype:ip:sctp:ngap:ngap:nas-5gs" size="0" pos="0" show="eth:ethertype:ip:sctp:ngap:ngap:nas-5gs"/>
  </proto>
  <proto name="eth" showname="Ethernet II, Src: 00:00:00_00:00:00 (00:00:00:00:00:00), Dst: 00:00:00_00:00:00 (00:00:00:00:00:00)" size="14" pos="0">
    <field name="eth.dst" showname="Destination: 00:00:00_00:00:00 (00:00:00:00:00:00)" size="6" pos="0" show="00:00:00:00:00:00" value="000000000000">
      <field name="eth.dst_resolved" showname="Destination (resolved): 00:00:00_00:00:00" hide="yes" size="6" pos="0" show="00:00:00_00:00:00" value="000000000000"/>
      <field name="eth.dst.oui" showname="Destination OUI: 00:00:00 (Officially Xerox, but 0:0:0:0:0:0 is more common)" hide="yes" size="3" pos="0" show="0" value="000000"/>
      <field name="eth.dst.oui_resolved" showname="Destination OUI (resolved): Officially Xerox, but 0:0:0:0:0:0 is more common" hide="yes" size="6" pos="0" show="Officially Xerox, but 0:0:0:0:0:0 is more common" value="000000000000"/>
      <field name="eth.dst.lg" showname=".... ..0. .... .... .... .... = LG bit: Globally unique address (factory default)" size="3" pos="0" show="False" value="0" unmaskedvalue="000000"/>
      <field name="eth.dst.ig" showname=".... ...0 .... .... .... .... = IG bit: Individual address (unicast)" size="3" pos="0" show="False" value="0" unmaskedvalue="000000"/>
      <field name="eth.addr" showname="Address: 00:00:00_00:00:00 (00:00:00:00:00:00)" hide="yes" size="6" pos="0" show="00:00:00:00:00:00" value="000000000000"/>
      <field name="eth.addr_resolved" showname="Address (resolved): 00:00:00_00:00:00" hide="yes" size="6" pos="0" show="00:00:00_00:00:00" value="000000000000"/>
      <field name="eth.addr.oui" showname="Address OUI: 00:00:00 (Officially Xerox, but 0:0:0:0:0:0 is more common)" hide="yes" size="3" pos="0" show="0" value="000000"/>
      <field name="eth.addr.oui_resolved" showname="Address OUI (resolved): Officially Xerox, but 0:0:0:0:0:0 is more common" hide="yes" size="6" pos="0" show="Officially Xerox, but 0:0:0:0:0:0 is more common" value="000000000000"/>
      <field name="eth.lg" showname=".... ..0. .... .... .... .... = LG bit: Globally unique address (factory default)" hide="yes" size="3" pos="0" show="False" value="0" unmaskedvalue="000000"/>
      <field name="eth.ig" showname=".... ...0 .... .... .... .... = IG bit: Individual address (unicast)" hide="yes" size="3" pos="0" show="False" value="0" unmaskedvalue="000000"/>
    </field>
    <field name="eth.src" showname="Source: 00:00:00_00:00:00 (00:00:00:00:00:00)" size="6" pos="6" show="00:00:00:00:00:00" value="000000000000">
      <field name="eth.src_resolved" showname="Source (resolved): 00:00:00_00:00:00" hide="yes" size="6" pos="6" show="00:00:00_00:00:00" value="000000000000"/>
      <field name="eth.src.oui" showname="Source OUI: 00:00:00 (Officially Xerox, but 0:0:0:0:0:0 is more common)" hide="yes" size="3" pos="6" show="0" value="000000"/>
      <field name="eth.src.oui_resolved" showname="Source OUI (resolved): Officially Xerox, but 0:0:0:0:0:0 is more common" hide="yes" size="6" pos="6" show="Officially Xerox, but 0:0:0:0:0:0 is more common" value="000000000000"/>
      <field name="eth.src.lg" showname=".... ..0. .... .... .... .... = LG bit: Globally unique address (factory default)" size="3" pos="6" show="False" value="0" unmaskedvalue="000000"/>
      <field name="eth.src.ig" showname=".... ...0 .... .... .... .... = IG bit: Individual address (unicast)" size="3" pos="6" show="False" value="0" unmaskedvalue="000000"/>
      <field name="eth.addr" showname="Address: 00:00:00_00:00:00 (00:00:00:00:00:00)" hide="yes" size="6" pos="6" show="00:00:00:00:00:00" value="000000000000"/>
      <field name="eth.addr_resolved" showname="Address (resolved): 00:00:00_00:00:00" hide="yes" size="6" pos="6" show="00:00:00_00:00:00" value="000000000000"/>
      <field name="eth.addr.oui" showname="Address OUI: 00:00:00 (Officially Xerox, but 0:0:0:0:0:0 is more common)" hide="yes" size="3" pos="6" show="0" value="000000"/>
      <field name="eth.addr.oui_resolved" showname="Address OUI (resolved): Officially Xerox, but 0:0:0:0:0:0 is more common" hide="yes" size="6" pos="6" show="Officially Xerox, but 0:0:0:0:0:0 is more common" value="000000000000"/>
      <field name="eth.lg" showname=".... ..0. .... .... .... .... = LG bit: Globally unique address (factory default)" hide="yes" size="3" pos="6" show="False" value="0" unmaskedvalue="000000"/>
      <field name="eth.ig" showname=".... ...0 .... .... .... .... = IG bit: Individual address (unicast)" hide="yes" size="3" pos="6" show="False" value="0" unmaskedvalue="000000"/>
    </field>
    <field name="eth.type" showname="Type: IPv4 (0x0800)" size="2" pos="12" show="0x0800" value="0800"/>
    <field name="eth.stream" showname="Stream index: 0" size="0" pos="0" show="0"/>
  </proto>
  <proto name="ip" showname="Internet Protocol Version 4, Src: 10.71.248.125, Dst: 10.105.43.26" size="20" pos="14">
    <field name="ip.version" showname="0100 .... = Version: 4" size="1" pos="14" show="4" value="45"/>
    <field name="ip.hdr_len" showname=".... 0101 = Header Length: 20 bytes (5)" size="1" pos="14" show="20" value="45"/>
    <field name="ip.dsfield" showname="Differentiated Services Field: 0xba (DSCP: EF PHB, ECN: ECT(0))" size="1" pos="15" show="0xba" value="ba">
      <field name="ip.dsfield.dscp" showname="1011 10.. = Differentiated Services Codepoint: Expedited Forwarding (46)" size="1" pos="15" show="46" value="2E" unmaskedvalue="ba"/>
      <field name="ip.dsfield.ecn" showname=".... ..10 = Explicit Congestion Notification: ECN-Capable Transport codepoint &#x27;10&#x27; (2)" size="1" pos="15" show="2" value="2" unmaskedvalue="ba"/>
    </field>
    <field name="ip.len" showname="Total Length: 107" size="2" pos="16" show="107" value="006b"/>
    <field name="ip.id" showname="Identification: 0x3fec (16364)" size="2" pos="18" show="0x3fec" value="3fec"/>
    <field name="ip.flags" showname="000. .... = Flags: 0x0" size="1" pos="20" show="0x00" value="0" unmaskedvalue="00">
      <field name="ip.flags.rb" showname="0... .... = Reserved bit: Not set" size="1" pos="20" show="False" value="0" unmaskedvalue="00"/>
      <field name="ip.flags.df" showname=".0.. .... = Don&#x27;t fragment: Not set" size="1" pos="20" show="False" value="0" unmaskedvalue="00"/>
      <field name="ip.flags.mf" showname="..0. .... = More fragments: Not set" size="1" pos="20" show="False" value="0" unmaskedvalue="00"/>
    </field>
    <field name="ip.frag_offset" showname="...0 0000 0000 0000 = Fragment Offset: 0" size="2" pos="20" show="0" value="0" unmaskedvalue="0000"/>
    <field name="ip.ttl" showname="Time to Live: 248" size="1" pos="22" show="248" value="f8"/>
    <field name="ip.proto" showname="Protocol: SCTP (132)" size="1" pos="23" show="132" value="84"/>
    <field name="ip.checksum" showname="Header Checksum: 0x4921 [validation disabled]" size="2" pos="24" show="0x4921" value="4921"/>
    <field name="ip.checksum.status" showname="Header checksum status: Unverified" size="0" pos="24" show="2"/>
    <field name="ip.src" showname="Source Address: 10.71.248.125" size="4" pos="26" show="10.71.248.125" value="0a47f87d"/>
    <field name="ip.addr" showname="Source or Destination Address: 10.71.248.125" hide="yes" size="4" pos="26" show="10.71.248.125" value="0a47f87d"/>
    <field name="ip.src_host" showname="Source Host: 10.71.248.125" hide="yes" size="4" pos="26" show="10.71.248.125" value="0a47f87d"/>
    <field name="ip.host" showname="Source or Destination Host: 10.71.248.125" hide="yes" size="4" pos="26" show="10.71.248.125" value="0a47f87d"/>
    <field name="ip.dst" showname="Destination Address: 10.105.43.26" size="4" pos="30" show="10.105.43.26" value="0a692b1a"/>
    <field name="ip.addr" showname="Source or Destination Address: 10.105.43.26" hide="yes" size="4" pos="30" show="10.105.43.26" value="0a692b1a"/>
    <field name="ip.dst_host" showname="Destination Host: 10.105.43.26" hide="yes" size="4" pos="30" show="10.105.43.26" value="0a692b1a"/>
    <field name="ip.host" showname="Source or Destination Host: 10.105.43.26" hide="yes" size="4" pos="30" show="10.105.43.26" value="0a692b1a"/>
    <field name="ip.stream" showname="Stream index: 0" size="0" pos="34" show="0"/>
  </proto>
  <proto name="sctp" showname="Stream Control Transmission Protocol, Src Port: 38412 (38412), Dst Port: 38412 (38412)" size="28" pos="34">
    <field name="sctp.srcport" showname="Source port: 38412" size="2" pos="34" show="38412" value="960c"/>
    <field name="sctp.dstport" showname="Destination port: 38412" size="2" pos="36" show="38412" value="960c"/>
    <field name="sctp.verification_tag" showname="Verification tag: 0xc2c62adc" size="4" pos="38" show="0xc2c62adc" value="c2c62adc"/>
    <field name="sctp.assoc_index" showname="Association index: disabled (enable in preferences)" size="0" pos="34" show="65535"/>
    <field name="sctp.port" showname="Port: 38412" hide="yes" size="2" pos="34" show="38412" value="960c"/>
    <field name="sctp.port" showname="Port: 38412" hide="yes" size="2" pos="36" show="38412" value="960c"/>
    <field name="sctp.checksum" showname="Checksum: 0x9af8984c [unverified]" size="4" pos="42" show="0x9af8984c" value="9af8984c"/>
    <field name="sctp.checksum.status" showname="Checksum Status: Unverified" size="0" pos="42" show="2"/>
    <field name="sctp.chunk" showname="DATA chunk (ordered, complete segment, TSN: 2, SID: 1, SSN: 3525, PPID: 60, payload length: 59 bytes)" size="16" pos="46" show="" value="">
      <field name="sctp.chunk_type" showname="Chunk type: DATA (0)" size="1" pos="46" show="0" value="00">
        <field name="sctp.chunk_bit_1" showname="0... .... = Bit: Stop processing of the packet" size="1" pos="46" show="False" value="0" unmaskedvalue="00"/>
        <field name="sctp.chunk_bit_2" showname=".0.. .... = Bit: Do not report" size="1" pos="46" show="False" value="0" unmaskedvalue="00"/>
      </field>
      <field name="sctp.chunk_flags" showname="Chunk flags: 0x03" size="1" pos="47" show="0x03" value="03">
        <field name="sctp.data_i_bit" showname=".... 0... = I-Bit: Possibly delay SACK" size="1" pos="47" show="False" value="0" unmaskedvalue="03"/>
        <field name="sctp.data_u_bit" showname=".... .0.. = U-Bit: Ordered delivery" size="1" pos="47" show="False" value="0" unmaskedvalue="03"/>
        <field name="sctp.data_b_bit" showname=".... ..1. = B-Bit: First segment" size="1" pos="47" show="True" value="1" unmaskedvalue="03"/>
        <field name="sctp.data_e_bit" showname=".... ...1 = E-Bit: Last segment" size="1" pos="47" show="True" value="1" unmaskedvalue="03"/>
      </field>
      <field name="sctp.chunk_length" showname="Chunk length: 75" size="2" pos="48" show="75" value="004b"/>
      <field name="sctp.data_tsn" showname="Transmission sequence number (relative): 2" size="4" pos="50" show="2" value="1a61decc"/>
      <field name="sctp.data_tsn_raw" showname="Transmission sequence number (absolute): 442621644" size="4" pos="50" show="442621644" value="1a61decc"/>
      <field name="sctp.data_sid" showname="Stream identifier: 0x0001" size="2" pos="54" show="0x0001" value="0001"/>
      <field name="sctp.data_ssn" showname="Stream sequence number: 3525" size="2" pos="56" show="3525" value="0dc5"/>
      <field name="sctp.data_payload_proto_id" showname="Payload protocol identifier: NGAP (60)" size="4" pos="58" show="60" value="0000003c"/>
    </field>
  </proto>
  <proto name="ngap" showname="NG Application Protocol (UplinkNASTransport)" size="59" pos="62">
    <field name="per.extension_bit" showname="0... .... Extension Bit: False" hide="yes" size="1" pos="62" show="False" value="0" unmaskedvalue="00"/>
    <field name="per.choice_index" showname="Choice Index: 0" hide="yes" size="1" pos="62" show="0" value="00"/>
    <field name="ngap.NGAP_PDU" showname="NGAP-PDU: initiatingMessage (0)" size="59" pos="62" show="0" value="002e4037000004000a00068020418661b7005500048003c51e0026000b0a7e04695a3358007e005e0079400f4002f810400944002002f810000765">
      <field name="ngap.initiatingMessage_element" showname="initiatingMessage" size="59" pos="62" show="" value="">
        <field name="ngap.procedureCode" showname="procedureCode: id-UplinkNASTransport (46)" size="1" pos="63" show="46" value="2e"/>
        <field name="per.enum_index" showname="Enumerated Index: 1" hide="yes" size="1" pos="64" show="1" value="40"/>
        <field name="ngap.criticality" showname="criticality: ignore (1)" size="1" pos="64" show="1" value="40"/>
        <field name="per.open_type_length" showname="Open Type Length: 55" hide="yes" size="1" pos="65" show="55" value="37"/>
        <field name="ngap.value_element" showname="value" size="55" pos="66" show="" value="">
          <field name="ngap.UplinkNASTransport_element" showname="UplinkNASTransport" size="55" pos="66" show="" value="">
            <field name="per.extension_bit" showname="0... .... Extension Bit: False" hide="yes" size="1" pos="66" show="False" value="0" unmaskedvalue="00"/>
            <field name="per.sequence_of_length" showname="Sequence-Of Length: 4" hide="yes" size="2" pos="67" show="4" value="0004"/>
            <field name="ngap.protocolIEs" showname="protocolIEs: 4 items" size="52" pos="69" show="4" value="000a00068020418661b7005500048003c51e0026000b0a7e04695a3358007e005e0079400f4002f810400944002002f810000765">
              <field name="" show="Item 0: id-AMF-UE-NGAP-ID" size="10" pos="69" value="000a00068020418661b7">
                <field name="ngap.ProtocolIE_Field_element" showname="ProtocolIE-Field" size="10" pos="69" show="" value="">
                  <field name="ngap.id" showname="id: id-AMF-UE-NGAP-ID (10)" size="2" pos="69" show="10" value="000a"/>
                  <field name="per.enum_index" showname="Enumerated Index: 0" hide="yes" size="1" pos="71" show="0" value="00"/>
                  <field name="ngap.criticality" showname="criticality: reject (0)" size="1" pos="71" show="0" value="00"/>
                  <field name="per.open_type_length" showname="Open Type Length: 6" hide="yes" size="1" pos="72" show="6" value="06"/>
                  <field name="ngap.value_element" showname="value" size="6" pos="73" show="" value="">
                    <field name="ngap.AMF_UE_NGAP_ID" showname="AMF-UE-NGAP-ID: 138538279351" size="6" pos="73" show="138538279351" value="8020418661b7"/>
                  </field>
                </field>
              </field>
              <field name="" show="Item 1: id-RAN-UE-NGAP-ID" size="8" pos="79" value="005500048003c51e">
                <field name="ngap.ProtocolIE_Field_element" showname="ProtocolIE-Field" size="8" pos="79" show="" value="">
                  <field name="ngap.id" showname="id: id-RAN-UE-NGAP-ID (85)" size="2" pos="79" show="85" value="0055"/>
                  <field name="per.enum_index" showname="Enumerated Index: 0" hide="yes" size="1" pos="81" show="0" value="00"/>
                  <field name="ngap.criticality" showname="criticality: reject (0)" size="1" pos="81" show="0" value="00"/>
                  <field name="per.open_type_length" showname="Open Type Length: 4" hide="yes" size="1" pos="82" show="4" value="04"/>
                  <field name="ngap.value_element" showname="value" size="4" pos="83" show="" value="">
                    <field name="ngap.RAN_UE_NGAP_ID" showname="RAN-UE-NGAP-ID: 247070" size="4" pos="83" show="247070" value="8003c51e"/>
                  </field>
                </field>
              </field>
              <field name="" show="Item 2: id-NAS-PDU" size="15" pos="87" value="0026000b0a7e04695a3358007e005e">
                <field name="ngap.ProtocolIE_Field_element" showname="ProtocolIE-Field" size="15" pos="87" show="" value="">
                  <field name="ngap.id" showname="id: id-NAS-PDU (38)" size="2" pos="87" show="38" value="0026"/>
                  <field name="per.enum_index" showname="Enumerated Index: 0" hide="yes" size="1" pos="89" show="0" value="00"/>
                  <field name="ngap.criticality" showname="criticality: reject (0)" size="1" pos="89" show="0" value="00"/>
                  <field name="per.open_type_length" showname="Open Type Length: 11" hide="yes" size="1" pos="90" show="11" value="0b"/>
                  <field name="ngap.value_element" showname="value" size="11" pos="91" show="" value="">
                    <field name="per.octet_string_length" showname="Octet String Length: 10" hide="yes" size="1" pos="91" show="10" value="0a"/>
                    <field name="ngap.NAS_PDU" showname="NAS-PDU: 7e04695a3358007e005e" size="10" pos="92" show="7e:04:69:5a:33:58:00:7e:00:5e" value="7e04695a3358007e005e">
                      <proto name="nas-5gs" showname="Non-Access-Stratum 5GS (NAS)PDU" size="10" pos="92">
                        <field name="" show="Security protected NAS 5GS message" size="7" pos="92" value="7e04695a335800">
                          <field name="nas-5gs.epd" showname="Extended protocol discriminator: 5G mobility management messages (126)" size="1" pos="92" show="126" value="7e"/>
                          <field name="nas-5gs.spare_half_octet" showname="0000 .... = Spare Half Octet: 0" size="1" pos="93" show="0" value="0" unmaskedvalue="04"/>
                          <field name="nas-5gs.security_header_type" showname=".... 0100 = Security header type: Integrity protected and ciphered with new 5GS security context (4)" size="1" pos="93" show="4" value="4" unmaskedvalue="04"/>
                          <field name="nas-5gs.msg_auth_code" showname="Message authentication code: 0x695a3358" size="4" pos="94" show="0x695a3358" value="695a3358"/>
                          <field name="nas-5gs.seq_no" showname="Sequence number: 0" size="1" pos="98" show="0" value="00"/>
                        </field>
                        <field name="" show="Encrypted data" size="3" pos="99" value="7e005e"/>
                      </proto>
                    </field>
                  </field>
                </field>
              </field>
              <field name="" show="Item 3: id-UserLocationInformation" size="19" pos="102" value="0079400f4002f810400944002002f810000765">
                <field name="ngap.ProtocolIE_Field_element" showname="ProtocolIE-Field" size="19" pos="102" show="" value="">
                  <field name="ngap.id" showname="id: id-UserLocationInformation (121)" size="2" pos="102" show="121" value="0079"/>
                  <field name="per.enum_index" showname="Enumerated Index: 1" hide="yes" size="1" pos="104" show="1" value="40"/>
                  <field name="ngap.criticality" showname="criticality: ignore (1)" size="1" pos="104" show="1" value="40"/>
                  <field name="per.open_type_length" showname="Open Type Length: 15" hide="yes" size="1" pos="105" show="15" value="0f"/>
                  <field name="ngap.value_element" showname="value" size="15" pos="106" show="" value="">
                    <field name="per.choice_index" showname="Choice Index: 1" hide="yes" size="1" pos="106" show="1" value="40"/>
                    <field name="ngap.UserLocationInformation" showname="UserLocationInformation: userLocationInformationNR (1)" size="15" pos="106" show="1" value="4002f810400944002002f810000765">
                      <field name="ngap.userLocationInformationNR_element" showname="userLocationInformationNR" size="15" pos="106" show="" value="">
                        <field name="per.extension_bit" showname="..0. .... Extension Bit: False" hide="yes" size="1" pos="106" show="False" value="0" unmaskedvalue="40"/>
                        <field name="per.optional_field_bit" showname="...0 .... Optional Field Bit: False (timeStamp is NOT present)" hide="yes" size="1" pos="106" show="False" value="0" unmaskedvalue="40"/>
                        <field name="per.optional_field_bit" showname=".... 0... Optional Field Bit: False (iE-Extensions is NOT present)" hide="yes" size="1" pos="106" show="False" value="0" unmaskedvalue="40"/>
                        <field name="ngap.nR_CGI_element" showname="nR-CGI" size="8" pos="106" show="" value="">
                          <field name="per.extension_bit" showname=".... .0.. Extension Bit: False" hide="yes" size="1" pos="106" show="False" value="0" unmaskedvalue="40"/>
                          <field name="per.optional_field_bit" showname=".... ..0. Optional Field Bit: False (iE-Extensions is NOT present)" hide="yes" size="1" pos="106" show="False" value="0" unmaskedvalue="40"/>
                          <field name="ngap.pLMNIdentity" showname="pLMNIdentity: 02f810" size="3" pos="107" show="02:f8:10" value="02f810">
                            <field name="e212.nrcgi.mcc" showname="Mobile Country Code (MCC): France (208)" size="2" pos="107" show="208" value="02f8"/>
                            <field name="e212.nrcgi.mnc" showname="Mobile Network Code (MNC): Orange (01)" size="2" pos="108" show="01" value="f810"/>
                          </field>
                          <field name="ngap.NRCellIdentity" showname="0100 0000 0000 1001 0100 0100 0000 0000 0010 .... = nRCellIdentity: 0x400944002" size="5" pos="106" show="0x0000000400944002" value="400944002" unmaskedvalue="4009440020"/>
                        </field>
                        <field name="ngap.tAI_element" showname="tAI" size="7" pos="114" show="" value="">
                          <field name="per.extension_bit" showname=".... 0... Extension Bit: False" hide="yes" size="1" pos="114" show="False" value="0" unmaskedvalue="20"/>
                          <field name="per.optional_field_bit" showname=".... .0.. Optional Field Bit: False (iE-Extensions is NOT present)" hide="yes" size="1" pos="114" show="False" value="0" unmaskedvalue="20"/>
                          <field name="ngap.pLMNIdentity" showname="pLMNIdentity: 02f810" size="3" pos="115" show="02:f8:10" value="02f810">
                            <field name="e212.5gstai.mcc" showname="Mobile Country Code (MCC): France (208)" size="2" pos="115" show="208" value="02f8"/>
                            <field name="e212.5gstai.mnc" showname="Mobile Network Code (MNC): Orange (01)" size="2" pos="116" show="01" value="f810"/>
                          </field>
                          <field name="ngap.tAC" showname="tAC: 1893 (0x000765)" size="3" pos="118" show="1893" value="000765"/>
                        </field>
                      </field>
                    </field>
                  </field>
                </field>
              </field>
            </field>
          </field>
        </field>
      </field>
    </field>
  </proto>
</packet>
<packet>
  <proto name="geninfo" pos="0" showname="General information" size="115">
    <field name="num" pos="0" show="15650" showname="Number" value="3d22" size="115"/>
    <field name="len" pos="0" show="115" showname="Frame Length" value="73" size="115"/>
    <field name="caplen" pos="0" show="115" showname="Captured Length" value="73" size="115"/>
    <field name="timestamp" pos="0" show="Oct 10, 2024 17:22:31.127738416 CEST" showname="Captured Time" value="1728573751.127738416" size="115"/>
  </proto>
  <proto name="frame" showname="Frame 15650: 115 bytes on wire (920 bits), 115 bytes captured (920 bits)" size="115" pos="0">
    <field name="frame.encap_type" showname="Encapsulation type: Ethernet (1)" size="0" pos="0" show="1"/>
    <field name="frame.time" showname="Arrival Time: Oct 10, 2024 17:22:31.127738416 CEST" size="0" pos="0" show="Oct 10, 2024 17:22:31.127738416 CEST"/>
    <field name="frame.time_utc" showname="UTC Arrival Time: Oct 10, 2024 15:22:31.127738416 UTC" size="0" pos="0" show="Oct 10, 2024 15:22:31.127738416 UTC"/>
    <field name="frame.time_epoch" showname="Epoch Arrival Time: 1728573751.127738416" size="0" pos="0" show="1728573751.127738416"/>
    <field name="frame.offset_shift" showname="Time shift for this packet: 0.000000000 seconds" size="0" pos="0" show="0.000000000"/>
    <field name="frame.time_delta" showname="Time delta from previous captured frame: 0.037504591 seconds" size="0" pos="0" show="0.037504591"/>
    <field name="frame.time_delta_displayed" showname="Time delta from previous displayed frame: 0.037504591 seconds" size="0" pos="0" show="0.037504591"/>
    <field name="frame.time_relative" showname="Time since reference or first frame: 1906.438096507 seconds" size="0" pos="0" show="1906.438096507"/>
    <field name="frame.number" showname="Frame Number: 15650" size="0" pos="0" show="15650"/>
    <field name="frame.len" showname="Frame Length: 115 bytes (920 bits)" size="0" pos="0" show="115"/>
    <field name="frame.cap_len" showname="Capture Length: 115 bytes (920 bits)" size="0" pos="0" show="115"/>
    <field name="frame.marked" showname="Frame is marked: False" size="0" pos="0" show="False"/>
    <field name="frame.ignored" showname="Frame is ignored: False" size="0" pos="0" show="False"/>
    <field name="frame.protocols" showname="Protocols in frame: eth:ethertype:ip:sctp:ngap:ngap" size="0" pos="0" show="eth:ethertype:ip:sctp:ngap:ngap"/>
  </proto>
  <proto name="eth" showname="Ethernet II, Src: Nokia_87:a7:2c (5c:83:82:87:a7:2c), Dst: Nokia_67:fb:fd (ac:8f:f8:67:fb:fd)" size="14" pos="0">
    <field name="eth.dst" showname="Destination: Nokia_67:fb:fd (ac:8f:f8:67:fb:fd)" size="6" pos="0" show="ac:8f:f8:67:fb:fd" value="ac8ff867fbfd">
      <field name="eth.dst_resolved" showname="Destination (resolved): Nokia_67:fb:fd" hide="yes" size="6" pos="0" show="Nokia_67:fb:fd" value="ac8ff867fbfd"/>
      <field name="eth.dst.oui" showname="Destination OUI: ac:8f:f8 (Nokia)" hide="yes" size="3" pos="0" show="11309048" value="ac8ff8"/>
      <field name="eth.dst.oui_resolved" showname="Destination OUI (resolved): Nokia" hide="yes" size="6" pos="0" show="Nokia" value="ac8ff867fbfd"/>
      <field name="eth.dst.lg" showname=".... ..0. .... .... .... .... = LG bit: Globally unique address (factory default)" size="3" pos="0" show="False" value="0" unmaskedvalue="ac8ff8"/>
      <field name="eth.dst.ig" showname=".... ...0 .... .... .... .... = IG bit: Individual address (unicast)" size="3" pos="0" show="False" value="0" unmaskedvalue="ac8ff8"/>
      <field name="eth.addr" showname="Address: Nokia_67:fb:fd (ac:8f:f8:67:fb:fd)" hide="yes" size="6" pos="0" show="ac:8f:f8:67:fb:fd" value="ac8ff867fbfd"/>
      <field name="eth.addr_resolved" showname="Address (resolved): Nokia_67:fb:fd" hide="yes" size="6" pos="0" show="Nokia_67:fb:fd" value="ac8ff867fbfd"/>
      <field name="eth.addr.oui" showname="Address OUI: ac:8f:f8 (Nokia)" hide="yes" size="3" pos="0" show="11309048" value="ac8ff8"/>
      <field name="eth.addr.oui_resolved" showname="Address OUI (resolved): Nokia" hide="yes" size="6" pos="0" show="Nokia" value="ac8ff867fbfd"/>
      <field name="eth.lg" showname=".... ..0. .... .... .... .... = LG bit: Globally unique address (factory default)" hide="yes" size="3" pos="0" show="False" value="0" unmaskedvalue="ac8ff8"/>
      <field name="eth.ig" showname=".... ...0 .... .... .... .... = IG bit: Individual address (unicast)" hide="yes" size="3" pos="0" show="False" value="0" unmaskedvalue="ac8ff8"/>
    </field>
    <field name="eth.src" showname="Source: Nokia_87:a7:2c (5c:83:82:87:a7:2c)" size="6" pos="6" show="5c:83:82:87:a7:2c" value="5c838287a72c">
      <field name="eth.src_resolved" showname="Source (resolved): Nokia_87:a7:2c" hide="yes" size="6" pos="6" show="Nokia_87:a7:2c" value="5c838287a72c"/>
      <field name="eth.src.oui" showname="Source OUI: 5c:83:82 (Nokia)" hide="yes" size="3" pos="6" show="6062978" value="5c8382"/>
      <field name="eth.src.oui_resolved" showname="Source OUI (resolved): Nokia" hide="yes" size="6" pos="6" show="Nokia" value="5c838287a72c"/>
      <field name="eth.src.lg" showname=".... ..0. .... .... .... .... = LG bit: Globally unique address (factory default)" size="3" pos="6" show="False" value="0" unmaskedvalue="5c8382"/>
      <field name="eth.src.ig" showname=".... ...0 .... .... .... .... = IG bit: Individual address (unicast)" size="3" pos="6" show="False" value="0" unmaskedvalue="5c8382"/>
      <field name="eth.addr" showname="Address: Nokia_87:a7:2c (5c:83:82:87:a7:2c)" hide="yes" size="6" pos="6" show="5c:83:82:87:a7:2c" value="5c838287a72c"/>
      <field name="eth.addr_resolved" showname="Address (resolved): Nokia_87:a7:2c" hide="yes" size="6" pos="6" show="Nokia_87:a7:2c" value="5c838287a72c"/>
      <field name="eth.addr.oui" showname="Address OUI: 5c:83:82 (Nokia)" hide="yes" size="3" pos="6" show="6062978" value="5c8382"/>
      <field name="eth.addr.oui_resolved" showname="Address OUI (resolved): Nokia" hide="yes" size="6" pos="6" show="Nokia" value="5c838287a72c"/>
      <field name="eth.lg" showname=".... ..0. .... .... .... .... = LG bit: Globally unique address (factory default)" hide="yes" size="3" pos="6" show="False" value="0" unmaskedvalue="5c8382"/>
      <field name="eth.ig" showname=".... ...0 .... .... .... .... = IG bit: Individual address (unicast)" hide="yes" size="3" pos="6" show="False" value="0" unmaskedvalue="5c8382"/>
    </field>
    <field name="eth.type" showname="Type: IPv4 (0x0800)" size="2" pos="12" show="0x0800" value="0800"/>
    <field name="eth.stream" showname="Stream index: 3" size="0" pos="0" show="3"/>
  </proto>
  <proto name="ip" showname="Internet Protocol Version 4, Src: 10.79.194.49, Dst: 10.105.43.90" size="20" pos="14">
    <field name="ip.version" showname="0100 .... = Version: 4" size="1" pos="14" show="4" value="45"/>
    <field name="ip.hdr_len" showname=".... 0101 = Header Length: 20 bytes (5)" size="1" pos="14" show="20" value="45"/>
    <field name="ip.dsfield" showname="Differentiated Services Field: 0xba (DSCP: EF PHB, ECN: ECT(0))" size="1" pos="15" show="0xba" value="ba">
      <field name="ip.dsfield.dscp" showname="1011 10.. = Differentiated Services Codepoint: Expedited Forwarding (46)" size="1" pos="15" show="46" value="2E" unmaskedvalue="ba"/>
      <field name="ip.dsfield.ecn" showname=".... ..10 = Explicit Congestion Notification: ECN-Capable Transport codepoint &#x27;10&#x27; (2)" size="1" pos="15" show="2" value="2" unmaskedvalue="ba"/>
    </field>
    <field name="ip.len" showname="Total Length: 101" size="2" pos="16" show="101" value="0065"/>
    <field name="ip.id" showname="Identification: 0x423b (16955)" size="2" pos="18" show="0x423b" value="423b"/>
    <field name="ip.flags" showname="000. .... = Flags: 0x0" size="1" pos="20" show="0x00" value="0" unmaskedvalue="00">
      <field name="ip.flags.rb" showname="0... .... = Reserved bit: Not set" size="1" pos="20" show="False" value="0" unmaskedvalue="00"/>
      <field name="ip.flags.df" showname=".0.. .... = Don&#x27;t fragment: Not set" size="1" pos="20" show="False" value="0" unmaskedvalue="00"/>
      <field name="ip.flags.mf" showname="..0. .... = More fragments: Not set" size="1" pos="20" show="False" value="0" unmaskedvalue="00"/>
    </field>
    <field name="ip.frag_offset" showname="...0 0000 0000 0000 = Fragment Offset: 0" size="2" pos="20" show="0" value="0" unmaskedvalue="0000"/>
    <field name="ip.ttl" showname="Time to Live: 54" size="1" pos="22" show="54" value="36"/>
    <field name="ip.proto" showname="Protocol: SCTP (132)" size="1" pos="23" show="132" value="84"/>
    <field name="ip.checksum" showname="Header Checksum: 0x3edd [validation disabled]" size="2" pos="24" show="0x3edd" value="3edd"/>
    <field name="ip.checksum.status" showname="Header checksum status: Unverified" size="0" pos="24" show="2"/>
    <field name="ip.src" showname="Source Address: 10.79.194.49" size="4" pos="26" show="10.79.194.49" value="0a4fc231"/>
    <field name="ip.addr" showname="Source or Destination Address: 10.79.194.49" hide="yes" size="4" pos="26" show="10.79.194.49" value="0a4fc231"/>
    <field name="ip.src_host" showname="Source Host: 10.79.194.49" hide="yes" size="4" pos="26" show="10.79.194.49" value="0a4fc231"/>
    <field name="ip.host" showname="Source or Destination Host: 10.79.194.49" hide="yes" size="4" pos="26" show="10.79.194.49" value="0a4fc231"/>
    <field name="ip.dst" showname="Destination Address: 10.105.43.90" size="4" pos="30" show="10.105.43.90" value="0a692b5a"/>
    <field name="ip.addr" showname="Source or Destination Address: 10.105.43.90" hide="yes" size="4" pos="30" show="10.105.43.90" value="0a692b5a"/>
    <field name="ip.dst_host" showname="Destination Host: 10.105.43.90" hide="yes" size="4" pos="30" show="10.105.43.90" value="0a692b5a"/>
    <field name="ip.host" showname="Source or Destination Host: 10.105.43.90" hide="yes" size="4" pos="30" show="10.105.43.90" value="0a692b5a"/>
    <field name="ip.stream" showname="Stream index: 1302" size="0" pos="34" show="1302"/>
  </proto>
  <proto name="sctp" showname="Stream Control Transmission Protocol, Src Port: 38412 (38412), Dst Port: 38412 (38412)" size="28" pos="34">
    <field name="sctp.srcport" showname="Source port: 38412" size="2" pos="34" show="38412" value="960c"/>
    <field name="sctp.dstport" showname="Destination port: 38412" size="2" pos="36" show="38412" value="960c"/>
    <field name="sctp.verification_tag" showname="Verification tag: 0x2adb5d3e" size="4" pos="38" show="0x2adb5d3e" value="2adb5d3e"/>
    <field name="sctp.assoc_index" showname="Association index: disabled (enable in preferences)" size="0" pos="34" show="65535"/>
    <field name="sctp.port" showname="Port: 38412" hide="yes" size="2" pos="34" show="38412" value="960c"/>
    <field name="sctp.port" showname="Port: 38412" hide="yes" size="2" pos="36" show="38412" value="960c"/>
    <field name="sctp.checksum" showname="Checksum: 0xf08283a8 [unverified]" size="4" pos="42" show="0xf08283a8" value="f08283a8"/>
    <field name="sctp.checksum.status" showname="Checksum Status: Unverified" size="0" pos="42" show="2"/>
    <field name="sctp.chunk" showname="DATA chunk (ordered, complete segment, TSN: 38, SID: 1, SSN: 7943, PPID: 60, payload length: 53 bytes)" size="16" pos="46" show="" value="">
      <field name="sctp.chunk_type" showname="Chunk type: DATA (0)" size="1" pos="46" show="0" value="00">
        <field name="sctp.chunk_bit_1" showname="0... .... = Bit: Stop processing of the packet" size="1" pos="46" show="False" value="0" unmaskedvalue="00"/>
        <field name="sctp.chunk_bit_2" showname=".0.. .... = Bit: Do not report" size="1" pos="46" show="False" value="0" unmaskedvalue="00"/>
      </field>
      <field name="sctp.chunk_flags" showname="Chunk flags: 0x03" size="1" pos="47" show="0x03" value="03">
        <field name="sctp.data_i_bit" showname=".... 0... = I-Bit: Possibly delay SACK" size="1" pos="47" show="False" value="0" unmaskedvalue="03"/>
        <field name="sctp.data_u_bit" showname=".... .0.. = U-Bit: Ordered delivery" size="1" pos="47" show="False" value="0" unmaskedvalue="03"/>
        <field name="sctp.data_b_bit" showname=".... ..1. = B-Bit: First segment" size="1" pos="47" show="True" value="1" unmaskedvalue="03"/>
        <field name="sctp.data_e_bit" showname=".... ...1 = E-Bit: Last segment" size="1" pos="47" show="True" value="1" unmaskedvalue="03"/>
      </field>
      <field name="sctp.chunk_length" showname="Chunk length: 69" size="2" pos="48" show="69" value="0045"/>
      <field name="sctp.data_tsn" showname="Transmission sequence number (relative): 38" size="4" pos="50" show="38" value="0ec84e95"/>
      <field name="sctp.data_tsn_raw" showname="Transmission sequence number (absolute): 248008341" size="4" pos="50" show="248008341" value="0ec84e95"/>
      <field name="sctp.data_sid" showname="Stream identifier: 0x0001" size="2" pos="54" show="0x0001" value="0001"/>
      <field name="sctp.data_ssn" showname="Stream sequence number: 7943" size="2" pos="56" show="7943" value="1f07"/>
      <field name="sctp.data_payload_proto_id" showname="Payload protocol identifier: NGAP (60)" size="4" pos="58" show="60" value="0000003c"/>
    </field>
  </proto>
  <proto name="ngap" showname="NG Application Protocol (UEContextReleaseComplete)" size="53" pos="62">
    <field name="per.extension_bit" showname="0... .... Extension Bit: False" hide="yes" size="1" pos="62" show="False" value="0" unmaskedvalue="20"/>
    <field name="per.choice_index" showname="Choice Index: 1" hide="yes" size="1" pos="62" show="1" value="20"/>
    <field name="ngap.NGAP_PDU" showname="NGAP-PDU: successfulOutcome (1)" size="53" pos="62" show="1" value="20290031000004000a400680288080252800554004800268f90079400f4002f81040029c005002f81000fffa003c000501000c000d">
      <field name="ngap.successfulOutcome_element" showname="successfulOutcome" size="53" pos="62" show="" value="">
        <field name="ngap.procedureCode" showname="procedureCode: id-UEContextRelease (41)" size="1" pos="63" show="41" value="29"/>
        <field name="per.enum_index" showname="Enumerated Index: 0" hide="yes" size="1" pos="64" show="0" value="00"/>
        <field name="ngap.criticality" showname="criticality: reject (0)" size="1" pos="64" show="0" value="00"/>
        <field name="per.open_type_length" showname="Open Type Length: 49" hide="yes" size="1" pos="65" show="49" value="31"/>
        <field name="ngap.value_element" showname="value" size="49" pos="66" show="" value="">
          <field name="ngap.UEContextReleaseComplete_element" showname="UEContextReleaseComplete" size="49" pos="66" show="" value="">
            <field name="per.extension_bit" showname="0... .... Extension Bit: False" hide="yes" size="1" pos="66" show="False" value="0" unmaskedvalue="00"/>
            <field name="per.sequence_of_length" showname="Sequence-Of Length: 4" hide="yes" size="2" pos="67" show="4" value="0004"/>
            <field name="ngap.protocolIEs" showname="protocolIEs: 4 items" size="46" pos="69" show="4" value="000a400680288080252800554004800268f90079400f4002f81040029c005002f81000fffa003c000501000c000d">
              <field name="" show="Item 0: id-AMF-UE-NGAP-ID" size="10" pos="69" value="000a4006802880802528">
                <field name="ngap.ProtocolIE_Field_element" showname="ProtocolIE-Field" size="10" pos="69" show="" value="">
                  <field name="ngap.id" showname="id: id-AMF-UE-NGAP-ID (10)" size="2" pos="69" show="10" value="000a"/>
                  <field name="per.enum_index" showname="Enumerated Index: 1" hide="yes" size="1" pos="71" show="1" value="40"/>
                  <field name="ngap.criticality" showname="criticality: ignore (1)" size="1" pos="71" show="1" value="40"/>
                  <field name="per.open_type_length" showname="Open Type Length: 6" hide="yes" size="1" pos="72" show="6" value="06"/>
                  <field name="ngap.value_element" showname="value" size="6" pos="73" show="" value="">
                    <field name="ngap.AMF_UE_NGAP_ID" showname="AMF-UE-NGAP-ID: 173954573608" size="6" pos="73" show="173954573608" value="802880802528"/>
                  </field>
                </field>
              </field>
              <field name="" show="Item 1: id-RAN-UE-NGAP-ID" size="8" pos="79" value="00554004800268f9">
                <field name="ngap.ProtocolIE_Field_element" showname="ProtocolIE-Field" size="8" pos="79" show="" value="">
                  <field name="ngap.id" showname="id: id-RAN-UE-NGAP-ID (85)" size="2" pos="79" show="85" value="0055"/>
                  <field name="per.enum_index" showname="Enumerated Index: 1" hide="yes" size="1" pos="81" show="1" value="40"/>
                  <field name="ngap.criticality" showname="criticality: ignore (1)" size="1" pos="81" show="1" value="40"/>
                  <field name="per.open_type_length" showname="Open Type Length: 4" hide="yes" size="1" pos="82" show="4" value="04"/>
                  <field name="ngap.value_element" showname="value" size="4" pos="83" show="" value="">
                    <field name="ngap.RAN_UE_NGAP_ID" showname="RAN-UE-NGAP-ID: 157945" size="4" pos="83" show="157945" value="800268f9"/>
                  </field>
                </field>
              </field>
              <field name="" show="Item 2: id-UserLocationInformation" size="19" pos="87" value="0079400f4002f81040029c005002f81000fffa">
                <field name="ngap.ProtocolIE_Field_element" showname="ProtocolIE-Field" size="19" pos="87" show="" value="">
                  <field name="ngap.id" showname="id: id-UserLocationInformation (121)" size="2" pos="87" show="121" value="0079"/>
                  <field name="per.enum_index" showname="Enumerated Index: 1" hide="yes" size="1" pos="89" show="1" value="40"/>
                  <field name="ngap.criticality" showname="criticality: ignore (1)" size="1" pos="89" show="1" value="40"/>
                  <field name="per.open_type_length" showname="Open Type Length: 15" hide="yes" size="1" pos="90" show="15" value="0f"/>
                  <field name="ngap.value_element" showname="value" size="15" pos="91" show="" value="">
                    <field name="per.choice_index" showname="Choice Index: 1" hide="yes" size="1" pos="91" show="1" value="40"/>
                    <field name="ngap.UserLocationInformation" showname="UserLocationInformation: userLocationInformationNR (1)" size="15" pos="91" show="1" value="4002f81040029c005002f81000fffa">
                      <field name="ngap.userLocationInformationNR_element" showname="userLocationInformationNR" size="15" pos="91" show="" value="">
                        <field name="per.extension_bit" showname="..0. .... Extension Bit: False" hide="yes" size="1" pos="91" show="False" value="0" unmaskedvalue="40"/>
                        <field name="per.optional_field_bit" showname="...0 .... Optional Field Bit: False (timeStamp is NOT present)" hide="yes" size="1" pos="91" show="False" value="0" unmaskedvalue="40"/>
                        <field name="per.optional_field_bit" showname=".... 0... Optional Field Bit: False (iE-Extensions is NOT present)" hide="yes" size="1" pos="91" show="False" value="0" unmaskedvalue="40"/>
                        <field name="ngap.nR_CGI_element" showname="nR-CGI" size="8" pos="91" show="" value="">
                          <field name="per.extension_bit" showname=".... .0.. Extension Bit: False" hide="yes" size="1" pos="91" show="False" value="0" unmaskedvalue="40"/>
                          <field name="per.optional_field_bit" showname=".... ..0. Optional Field Bit: False (iE-Extensions is NOT present)" hide="yes" size="1" pos="91" show="False" value="0" unmaskedvalue="40"/>
                          <field name="ngap.pLMNIdentity" showname="pLMNIdentity: 02f810" size="3" pos="92" show="02:f8:10" value="02f810">
                            <field name="e212.nrcgi.mcc" showname="Mobile Country Code (MCC): France (208)" size="2" pos="92" show="208" value="02f8"/>
                            <field name="e212.nrcgi.mnc" showname="Mobile Network Code (MNC): Orange (01)" size="2" pos="93" show="01" value="f810"/>
                          </field>
                          <field name="ngap.NRCellIdentity" showname="0100 0000 0000 0010 1001 1100 0000 0000 0101 .... = nRCellIdentity: 0x40029c005" size="5" pos="91" show="0x000000040029c005" value="40029C005" unmaskedvalue="40029c0050"/>
                        </field>
                        <field name="ngap.tAI_element" showname="tAI" size="7" pos="99" show="" value="">
                          <field name="per.extension_bit" showname=".... 0... Extension Bit: False" hide="yes" size="1" pos="99" show="False" value="0" unmaskedvalue="50"/>
                          <field name="per.optional_field_bit" showname=".... .0.. Optional Field Bit: False (iE-Extensions is NOT present)" hide="yes" size="1" pos="99" show="False" value="0" unmaskedvalue="50"/>
                          <field name="ngap.pLMNIdentity" showname="pLMNIdentity: 02f810" size="3" pos="100" show="02:f8:10" value="02f810">
                            <field name="e212.5gstai.mcc" showname="Mobile Country Code (MCC): France (208)" size="2" pos="100" show="208" value="02f8"/>
                            <field name="e212.5gstai.mnc" showname="Mobile Network Code (MNC): Orange (01)" size="2" pos="101" show="01" value="f810"/>
                          </field>
                          <field name="ngap.tAC" showname="tAC: 65530 (0x00fffa)" size="3" pos="103" show="65530" value="00fffa"/>
                        </field>
                      </field>
                    </field>
                  </field>
                </field>
              </field>
              <field name="" show="Item 3: id-PDUSessionResourceListCxtRelCpl" size="9" pos="106" value="003c000501000c000d">
                <field name="ngap.ProtocolIE_Field_element" showname="ProtocolIE-Field" size="9" pos="106" show="" value="">
                  <field name="ngap.id" showname="id: id-PDUSessionResourceListCxtRelCpl (60)" size="2" pos="106" show="60" value="003c"/>
                  <field name="per.enum_index" showname="Enumerated Index: 0" hide="yes" size="1" pos="108" show="0" value="00"/>
                  <field name="ngap.criticality" showname="criticality: reject (0)" size="1" pos="108" show="0" value="00"/>
                  <field name="per.open_type_length" showname="Open Type Length: 5" hide="yes" size="1" pos="109" show="5" value="05"/>
                  <field name="ngap.value_element" showname="value" size="5" pos="110" show="" value="">
                    <field name="per.sequence_of_length" showname="Sequence-Of Length: 2" hide="yes" size="1" pos="110" show="2" value="01"/>
                    <field name="ngap.PDUSessionResourceListCxtRelCpl" showname="PDUSessionResourceListCxtRelCpl: 2 items" size="4" pos="111" show="2" value="000c000d">
                      <field name="" show="Item 0" size="2" pos="111" value="000c">
                        <field name="ngap.PDUSessionResourceItemCxtRelCpl_element" showname="PDUSessionResourceItemCxtRelCpl" size="2" pos="111" show="" value="">
                          <field name="per.extension_bit" showname="0... .... Extension Bit: False" hide="yes" size="1" pos="111" show="False" value="0" unmaskedvalue="00"/>
                          <field name="per.optional_field_bit" showname=".0.. .... Optional Field Bit: False (iE-Extensions is NOT present)" hide="yes" size="1" pos="111" show="False" value="0" unmaskedvalue="00"/>
                          <field name="ngap.pDUSessionID" showname="pDUSessionID: 12" size="1" pos="112" show="12" value="0c"/>
                        </field>
                      </field>
                      <field name="" show="Item 1" size="2" pos="113" value="000d">
                        <field name="ngap.PDUSessionResourceItemCxtRelCpl_element" showname="PDUSessionResourceItemCxtRelCpl" size="2" pos="113" show="" value="">
                          <field name="per.extension_bit" showname="0... .... Extension Bit: False" hide="yes" size="1" pos="113" show="False" value="0" unmaskedvalue="00"/>
                          <field name="per.optional_field_bit" showname=".0.. .... Optional Field Bit: False (iE-Extensions is NOT present)" hide="yes" size="1" pos="113" show="False" value="0" unmaskedvalue="00"/>
                          <field name="ngap.pDUSessionID" showname="pDUSessionID: 13" size="1" pos="114" show="13" value="0d"/>
                        </field>
                      </field>
                    </field>
                  </field>
                </field>
              </field>
            </field>
          </field>
        </field>
      </field>
    </field>
  </proto>
</packet>
</pdml>
